   1               		.file	"main.c"
   2               	__SREG__ = 0x3f
   3               	__SP_H__ = 0x3e
   4               	__SP_L__ = 0x3d
   5               	__CCP__  = 0x34
   6               	__tmp_reg__ = 0
   7               	__zero_reg__ = 1
  15               	.Ltext0:
  16               	.global	Out_MAX
  18               	Out_MAX:
  19               	.LFB8:
  20               	.LM1:
  21               	.LVL0:
  22 0000 EF92      		push r14
  23 0002 FF92      		push r15
  24 0004 0F93      		push r16
  25 0006 1F93      		push r17
  26               	/* prologue: function */
  27               	/* frame size = 0 */
  28 0008 7B01      		movw r14,r22
  29               	.LM2:
  30 000a 861B      		sub r24,r22
  31 000c 970B      		sbc r25,r23
  32               	.LVL1:
  33 000e AA27      		clr r26
  34 0010 97FD      		sbrc r25,7
  35 0012 A095      		com r26
  36 0014 BA2F      		mov r27,r26
  37               	.LVL2:
  38               	.LM3:
  39 0016 BC01      		movw r22,r24
  40 0018 CD01      		movw r24,r26
  41               	.LVL3:
  42 001a 20E7      		ldi r18,lo8(1648)
  43 001c 36E0      		ldi r19,hi8(1648)
  44 001e 40E0      		ldi r20,hlo8(1648)
  45 0020 50E0      		ldi r21,hhi8(1648)
  46 0022 00D0      		rcall __mulsi3
  47               	.LM4:
  48 0024 20E4      		ldi r18,lo8(1600)
  49 0026 36E0      		ldi r19,hi8(1600)
  50 0028 40E0      		ldi r20,hlo8(1600)
  51 002a 50E0      		ldi r21,hhi8(1600)
  52 002c 00D0      		rcall __divmodsi4
  53 002e C901      		movw r24,r18
  54               	.LVL4:
  55 0030 DA01      		movw r26,r20
  56 0032 0027      		clr r16
  57 0034 F7FC      		sbrc r15,7
  58 0036 0095      		com r16
  59 0038 102F      		mov r17,r16
  60               	.LVL5:
  61 003a E80E      		add r14,r24
  62 003c F91E      		adc r15,r25
  63 003e 0A1F      		adc r16,r26
  64 0040 1B1F      		adc r17,r27
  65               	.LVL6:
  66               	.LM5:
  67 0042 B701      		movw r22,r14
  68 0044 C801      		movw r24,r16
  69               	.LVL7:
  70               	/* epilogue start */
  71 0046 1F91      		pop r17
  72 0048 0F91      		pop r16
  73 004a FF90      		pop r15
  74 004c EF90      		pop r14
  75 004e 0895      		ret
  76               	.LFE8:
  78               	.global	Out_MIN
  80               	Out_MIN:
  81               	.LFB9:
  82               	.LM6:
  83               	.LVL8:
  84 0050 EF92      		push r14
  85 0052 FF92      		push r15
  86 0054 0F93      		push r16
  87 0056 1F93      		push r17
  88               	/* prologue: function */
  89               	/* frame size = 0 */
  90 0058 7B01      		movw r14,r22
  91               	.LM7:
  92 005a 861B      		sub r24,r22
  93 005c 970B      		sbc r25,r23
  94               	.LVL9:
  95 005e AA27      		clr r26
  96 0060 97FD      		sbrc r25,7
  97 0062 A095      		com r26
  98 0064 BA2F      		mov r27,r26
  99               	.LVL10:
 100               	.LM8:
 101 0066 BC01      		movw r22,r24
 102 0068 CD01      		movw r24,r26
 103               	.LVL11:
 104 006a 24E0      		ldi r18,lo8(4)
 105 006c 30E0      		ldi r19,hi8(4)
 106 006e 40E0      		ldi r20,hlo8(4)
 107 0070 50E0      		ldi r21,hhi8(4)
 108 0072 00D0      		rcall __divmodsi4
 109 0074 C901      		movw r24,r18
 110               	.LVL12:
 111 0076 DA01      		movw r26,r20
 112 0078 0027      		clr r16
 113 007a F7FC      		sbrc r15,7
 114 007c 0095      		com r16
 115 007e 102F      		mov r17,r16
 116               	.LVL13:
 117 0080 E81A      		sub r14,r24
 118 0082 F90A      		sbc r15,r25
 119 0084 0A0B      		sbc r16,r26
 120 0086 1B0B      		sbc r17,r27
 121               	.LVL14:
 122               	.LM9:
 123 0088 B701      		movw r22,r14
 124 008a C801      		movw r24,r16
 125               	.LVL15:
 126               	/* epilogue start */
 127 008c 1F91      		pop r17
 128 008e 0F91      		pop r16
 129 0090 FF90      		pop r15
 130 0092 EF90      		pop r14
 131 0094 0895      		ret
 132               	.LFE9:
 134               	.global	TimerDelayMs
 136               	TimerDelayMs:
 137               	.LFB14:
 138               	.LM10:
 139               	.LVL16:
 140               	/* prologue: function */
 141               	/* frame size = 0 */
 142               	.LM11:
 143 0096 9C01      		movw r18,r24
 144 0098 46E0      		ldi r20,6
 145 009a 3695      	1:	lsr r19
 146 009c 2795      		ror r18
 147 009e 4A95      		dec r20
 148 00a0 01F4      		brne 1b
 149 00a2 3093 0000 		sts (TimerCycleI)+1,r19
 150 00a6 2093 0000 		sts TimerCycleI,r18
 151               	.LM12:
 152 00aa 8F73      		andi r24,lo8(63)
 153 00ac 9070      		andi r25,hi8(63)
 154               	.LVL17:
 155 00ae 28EE      		ldi r18,lo8(1000)
 156 00b0 33E0      		ldi r19,hi8(1000)
 157 00b2 AC01      		movw r20,r24
 158 00b4 429F      		mul r20,r18
 159 00b6 C001      		movw r24,r0
 160 00b8 439F      		mul r20,r19
 161 00ba 900D      		add r25,r0
 162 00bc 529F      		mul r21,r18
 163 00be 900D      		add r25,r0
 164 00c0 1124      		clr r1
 165               	.LVL18:
 166 00c2 8095      		com r24
 167 00c4 9095      		com r25
 168 00c6 9093 0000 		sts (TimerCycleF)+1,r25
 169 00ca 8093 0000 		sts TimerCycleF,r24
 170               	.LM13:
 171 00ce 1092 0000 		sts TimerOver,__zero_reg__
 172               	.LM14:
 173 00d2 8091 0000 		lds r24,TimerCycleI
 174 00d6 9091 0000 		lds r25,(TimerCycleI)+1
 175 00da 0097      		sbiw r24,0
 176 00dc 01F0      		breq .L7
 177 00de 8F5F      		subi r24,lo8(-1)
 178 00e0 9F4F      		sbci r25,hi8(-1)
 179 00e2 01F4      		brne .L11
 180 00e4 00C0      		rjmp .L13
 181               	.L7:
 182               	.LM15:
 183 00e6 8091 0000 		lds r24,TimerCycleF
 184 00ea 9091 0000 		lds r25,(TimerCycleF)+1
 185 00ee 9DBD      		out 77-32,r25
 186 00f0 8091 0000 		lds r24,TimerCycleF
 187 00f4 9091 0000 		lds r25,(TimerCycleF)+1
 188 00f8 00C0      		rjmp .L12
 189               	.L13:
 190               	.LM16:
 191 00fa 89B7      		in r24,89-32
 192 00fc 8B7F      		andi r24,lo8(-5)
 193 00fe 89BF      		out 89-32,r24
 194               	.LM17:
 195 0100 81E0      		ldi r24,lo8(1)
 196 0102 8093 0000 		sts TimerOver,r24
 197 0106 00C0      		rjmp .L9
 198               	.L11:
 199               	.LM18:
 200 0108 85E0      		ldi r24,lo8(5)
 201 010a 8DBD      		out 77-32,r24
 202 010c 8FEF      		ldi r24,lo8(-1)
 203               	.L12:
 204 010e 8CBD      		out 76-32,r24
 205               	.L9:
 206               	.LM19:
 207 0110 89B7      		in r24,89-32
 208 0112 8460      		ori r24,lo8(4)
 209 0114 89BF      		out 89-32,r24
 210               	.LM20:
 211 0116 8EB5      		in r24,78-32
 212 0118 8260      		ori r24,lo8(2)
 213 011a 8EBD      		out 78-32,r24
 214               	/* epilogue start */
 215               	.LM21:
 216 011c 0895      		ret
 217               	.LFE14:
 219               	.global	__vector_8
 221               	__vector_8:
 222               	.LFB15:
 223               	.LM22:
 224 011e 1F92      		push __zero_reg__
 225 0120 0F92      		push r0
 226 0122 0FB6      		in r0,__SREG__
 227 0124 0F92      		push r0
 228 0126 1124      		clr __zero_reg__
 229 0128 2F93      		push r18
 230 012a 8F93      		push r24
 231 012c 9F93      		push r25
 232               	/* prologue: Signal */
 233               	/* frame size = 0 */
 234               	.LM23:
 235 012e 8091 0000 		lds r24,TimerCycleI
 236 0132 9091 0000 		lds r25,(TimerCycleI)+1
 237 0136 0197      		sbiw r24,1
 238 0138 9093 0000 		sts (TimerCycleI)+1,r25
 239 013c 8093 0000 		sts TimerCycleI,r24
 240               	.LM24:
 241 0140 8091 0000 		lds r24,TimerCycleI
 242 0144 9091 0000 		lds r25,(TimerCycleI)+1
 243 0148 0097      		sbiw r24,0
 244 014a 01F0      		breq .L16
 245 014c 8F5F      		subi r24,lo8(-1)
 246 014e 9F4F      		sbci r25,hi8(-1)
 247 0150 01F4      		brne .L20
 248 0152 00C0      		rjmp .L22
 249               	.L16:
 250               	.LM25:
 251 0154 8091 0000 		lds r24,TimerCycleF
 252 0158 9091 0000 		lds r25,(TimerCycleF)+1
 253 015c 9DBD      		out 77-32,r25
 254 015e 8091 0000 		lds r24,TimerCycleF
 255 0162 9091 0000 		lds r25,(TimerCycleF)+1
 256 0166 00C0      		rjmp .L21
 257               	.L22:
 258               	.LM26:
 259 0168 8EB5      		in r24,78-32
 260 016a 887F      		andi r24,lo8(-8)
 261 016c 8EBD      		out 78-32,r24
 262               	.LM27:
 263 016e 89B7      		in r24,89-32
 264 0170 8B7F      		andi r24,lo8(-5)
 265 0172 89BF      		out 89-32,r24
 266               	.LM28:
 267 0174 81E0      		ldi r24,lo8(1)
 268 0176 8093 0000 		sts TimerOver,r24
 269 017a 00C0      		rjmp .L19
 270               	.L20:
 271               	.LM29:
 272 017c 85E0      		ldi r24,lo8(5)
 273 017e 8DBD      		out 77-32,r24
 274 0180 8FEF      		ldi r24,lo8(-1)
 275               	.L21:
 276 0182 8CBD      		out 76-32,r24
 277               	.L19:
 278               	/* epilogue start */
 279               	.LM30:
 280 0184 9F91      		pop r25
 281 0186 8F91      		pop r24
 282 0188 2F91      		pop r18
 283 018a 0F90      		pop r0
 284 018c 0FBE      		out __SREG__,r0
 285 018e 0F90      		pop r0
 286 0190 1F90      		pop __zero_reg__
 287 0192 1895      		reti
 288               	.LFE15:
 290               	.global	USART_Init
 292               	USART_Init:
 293               	.LFB16:
 294               	.LM31:
 295               	.LVL19:
 296               	/* prologue: function */
 297               	/* frame size = 0 */
 298               	.LM32:
 299 0194 9C01      		movw r18,r24
 300 0196 40E0      		ldi r20,lo8(0)
 301 0198 50E0      		ldi r21,hi8(0)
 302               	.LVL20:
 303 019a 60E2      		ldi r22,lo8(500000)
 304 019c 71EA      		ldi r23,hi8(500000)
 305 019e 87E0      		ldi r24,hlo8(500000)
 306 01a0 90E0      		ldi r25,hhi8(500000)
 307 01a2 00D0      		rcall __udivmodsi4
 308 01a4 C901      		movw r24,r18
 309               	.LVL21:
 310 01a6 DA01      		movw r26,r20
 311               	.LVL22:
 312 01a8 0197      		sbiw r24,1
 313 01aa A109      		sbc r26,__zero_reg__
 314 01ac B109      		sbc r27,__zero_reg__
 315 01ae 292F      		mov r18,r25
 316 01b0 3A2F      		mov r19,r26
 317 01b2 4B2F      		mov r20,r27
 318 01b4 5527      		clr r21
 319 01b6 0196      		adiw r24,1
 320 01b8 A11D      		adc r26,__zero_reg__
 321 01ba B11D      		adc r27,__zero_reg__
 322 01bc 20BD      		out 64-32,r18
 323               	.LM33:
 324 01be 8150      		subi r24,lo8(-(-1))
 325 01c0 89B9      		out 41-32,r24
 326               	.LM34:
 327 01c2 88E9      		ldi r24,lo8(-104)
 328 01c4 8AB9      		out 42-32,r24
 329               	.LM35:
 330 01c6 86E8      		ldi r24,lo8(-122)
 331 01c8 80BD      		out 64-32,r24
 332               	/* epilogue start */
 333               	.LM36:
 334 01ca 0895      		ret
 335               	.LFE16:
 337               	.global	USART_Transmit
 339               	USART_Transmit:
 340               	.LFB17:
 341               	.LM37:
 342               	/* prologue: function */
 343               	/* frame size = 0 */
 344               	.LVL23:
 345               	.L26:
 346               	.LM38:
 347 01cc 5D9B      		sbis 43-32,5
 348 01ce 00C0      		rjmp .L26
 349               	.LM39:
 350 01d0 8CB9      		out 44-32,r24
 351               	/* epilogue start */
 352               	.LM40:
 353 01d2 0895      		ret
 354               	.LFE17:
 356               	.global	printk
 358               	printk:
 359               	.LFB18:
 360               	.LM41:
 361               	.LVL24:
 362               	/* prologue: function */
 363               	/* frame size = 0 */
 364 01d4 FC01      		movw r30,r24
 365               	.LM42:
 366 01d6 0097      		sbiw r24,0
 367 01d8 01F0      		breq .L33
 368 01da 8081      		ld r24,Z
 369               	.LVL25:
 370 01dc 8823      		tst r24
 371 01de 01F0      		breq .L33
 372               	.LM43:
 373 01e0 929A      		sbi 50-32,2
 374 01e2 00C0      		rjmp .L31
 375               	.L34:
 376               	.LBB40:
 377               	.LBB41:
 378               	.LM44:
 379 01e4 5D9B      		sbis 43-32,5
 380 01e6 00C0      		rjmp .L34
 381               	.LBE41:
 382               	.LBE40:
 383               	.LM45:
 384 01e8 3196      		adiw r30,1
 385               	.LBB43:
 386               	.LBB42:
 387               	.LM46:
 388 01ea 8CB9      		out 44-32,r24
 389               	.L31:
 390               	.LBE42:
 391               	.LBE43:
 392               	.LM47:
 393 01ec 8081      		ld r24,Z
 394 01ee 8823      		tst r24
 395 01f0 01F4      		brne .L34
 396               	.LM48:
 397 01f2 9298      		cbi 50-32,2
 398               	.LVL26:
 399               	.L33:
 400 01f4 0895      		ret
 401               	.LFE18:
 403               	.global	RxOverrunTimer
 405               	RxOverrunTimer:
 406               	.LFB19:
 407               	.LM49:
 408               	/* prologue: function */
 409               	/* frame size = 0 */
 410               	.LM50:
 411 01f6 89E4      		ldi r24,lo8(73)
 412 01f8 84BD      		out 68-32,r24
 413               	.LM51:
 414 01fa 88B7      		in r24,88-32
 415 01fc 8064      		ori r24,lo8(64)
 416 01fe 88BF      		out 88-32,r24
 417               	.LM52:
 418 0200 89B7      		in r24,89-32
 419 0202 8064      		ori r24,lo8(64)
 420 0204 89BF      		out 89-32,r24
 421               	.LM53:
 422 0206 1092 0000 		sts RxFrameComplete,__zero_reg__
 423               	/* epilogue start */
 424               	.LM54:
 425 020a 0895      		ret
 426               	.LFE19:
 428               	.global	__vector_4
 430               	__vector_4:
 431               	.LFB20:
 432               	.LM55:
 433 020c 1F92      		push __zero_reg__
 434 020e 0F92      		push r0
 435 0210 0FB6      		in r0,__SREG__
 436 0212 0F92      		push r0
 437 0214 1124      		clr __zero_reg__
 438 0216 2F93      		push r18
 439 0218 3F93      		push r19
 440 021a 8F93      		push r24
 441 021c 9F93      		push r25
 442 021e EF93      		push r30
 443 0220 FF93      		push r31
 444               	/* prologue: Signal */
 445               	/* frame size = 0 */
 446               	.LM56:
 447 0222 89B7      		in r24,89-32
 448 0224 8F7B      		andi r24,lo8(-65)
 449 0226 89BF      		out 89-32,r24
 450               	.LM57:
 451 0228 88B7      		in r24,88-32
 452 022a 8064      		ori r24,lo8(64)
 453 022c 88BF      		out 88-32,r24
 454               	.LM58:
 455 022e 8091 0000 		lds r24,RxMode
 456 0232 8130      		cpi r24,lo8(1)
 457 0234 00F0      		brlo .L39
 458 0236 8330      		cpi r24,lo8(3)
 459 0238 00F0      		brlo .L40
 460 023a 8330      		cpi r24,lo8(3)
 461 023c 01F4      		brne .L39
 462               	.LM59:
 463 023e 8091 0000 		lds r24,RxFrame+4
 464 0242 9091 0000 		lds r25,(RxFrame+4)+1
 465 0246 20E0      		ldi r18,lo8(RxArrayTemp+2)
 466 0248 30E0      		ldi r19,hi8(RxArrayTemp+2)
 467 024a 0297      		sbiw r24,2
 468 024c 00F4      		brsh .L42
 469               	.LBB44:
 470               	.LBB45:
 471               	.LM60:
 472 024e 81E0      		ldi r24,lo8(1)
 473 0250 90E0      		ldi r25,hi8(1)
 474 0252 9093 0000 		sts (ErrFlag)+1,r25
 475 0256 8093 0000 		sts ErrFlag,r24
 476               	.LM61:
 477 025a 84E0      		ldi r24,lo8(-8188)
 478 025c 90EE      		ldi r25,hi8(-8188)
 479 025e 9093 0000 		sts (ErrCodeDisplay)+1,r25
 480 0262 8093 0000 		sts ErrCodeDisplay,r24
 481 0266 00C0      		rjmp .L44
 482               	.L42:
 483               	.LBE45:
 484               	.LBE44:
 485               	.LM62:
 486 0268 81E0      		ldi r24,lo8(1)
 487 026a 8093 0000 		sts RxFrameComplete,r24
 488               	.LM63:
 489 026e E091 0000 		lds r30,RxFrame+2
 490 0272 F091 0000 		lds r31,(RxFrame+2)+1
 491 0276 3297      		sbiw r30,2
 492 0278 8081      		ld r24,Z
 493 027a 8093 0000 		sts RxFrame+7,r24
 494               	.LM64:
 495 027e E091 0000 		lds r30,RxFrame+2
 496 0282 F091 0000 		lds r31,(RxFrame+2)+1
 497 0286 3197      		sbiw r30,1
 498 0288 8081      		ld r24,Z
 499 028a 8093 0000 		sts RxFrame+6,r24
 500               	.L44:
 501               	.LM65:
 502 028e 3093 0000 		sts (RxFrame+2)+1,r19
 503 0292 2093 0000 		sts RxFrame+2,r18
 504 0296 00C0      		rjmp .L40
 505               	.L39:
 506               	.LBB46:
 507               	.LBB47:
 508               	.LM66:
 509 0298 81E0      		ldi r24,lo8(1)
 510 029a 90E0      		ldi r25,hi8(1)
 511 029c 9093 0000 		sts (ErrFlag)+1,r25
 512 02a0 8093 0000 		sts ErrFlag,r24
 513               	.LM67:
 514 02a4 84E0      		ldi r24,lo8(-8188)
 515 02a6 90EE      		ldi r25,hi8(-8188)
 516 02a8 9093 0000 		sts (ErrCodeDisplay)+1,r25
 517 02ac 8093 0000 		sts ErrCodeDisplay,r24
 518               	.L40:
 519               	.LBE47:
 520               	.LBE46:
 521               	.LM68:
 522 02b0 89B7      		in r24,89-32
 523 02b2 8F7B      		andi r24,lo8(-65)
 524 02b4 89BF      		out 89-32,r24
 525               	.LM69:
 526 02b6 14BC      		out 68-32,__zero_reg__
 527               	.LM70:
 528 02b8 1092 0000 		sts RxMode,__zero_reg__
 529               	/* epilogue start */
 530               	.LM71:
 531 02bc FF91      		pop r31
 532 02be EF91      		pop r30
 533 02c0 9F91      		pop r25
 534 02c2 8F91      		pop r24
 535 02c4 3F91      		pop r19
 536 02c6 2F91      		pop r18
 537 02c8 0F90      		pop r0
 538 02ca 0FBE      		out __SREG__,r0
 539 02cc 0F90      		pop r0
 540 02ce 1F90      		pop __zero_reg__
 541 02d0 1895      		reti
 542               	.LFE20:
 544               	.global	__vector_11
 546               	__vector_11:
 547               	.LFB21:
 548               	.LM72:
 549 02d2 1F92      		push __zero_reg__
 550 02d4 0F92      		push r0
 551 02d6 0FB6      		in r0,__SREG__
 552 02d8 0F92      		push r0
 553 02da 1124      		clr __zero_reg__
 554 02dc 2F93      		push r18
 555 02de 3F93      		push r19
 556 02e0 4F93      		push r20
 557 02e2 5F93      		push r21
 558 02e4 6F93      		push r22
 559 02e6 7F93      		push r23
 560 02e8 8F93      		push r24
 561 02ea 9F93      		push r25
 562 02ec AF93      		push r26
 563 02ee BF93      		push r27
 564 02f0 EF93      		push r30
 565 02f2 FF93      		push r31
 566               	/* prologue: Signal */
 567               	/* frame size = 0 */
 568               	.LM73:
 569 02f4 5F9B      		sbis 43-32,7
 570 02f6 00C0      		rjmp .L53
 571               	.LM74:
 572               	/* #APP */
 573               	 ;  264 "main.c" 1
 574 02f8 F894      		cli
 575               	 ;  0 "" 2
 576               	.LM75:
 577               	/* #NOAPP */
 578 02fa 89B7      		in r24,89-32
 579 02fc 8F7B      		andi r24,lo8(-65)
 580 02fe 89BF      		out 89-32,r24
 581               	.LM76:
 582 0300 8BB1      		in r24,43-32
 583 0302 8C71      		andi r24,lo8(28)
 584 0304 01F0      		breq .L47
 585               	.LBB48:
 586               	.LBB49:
 587               	.LM77:
 588 0306 81E0      		ldi r24,lo8(1)
 589 0308 90E0      		ldi r25,hi8(1)
 590 030a 9093 0000 		sts (ErrFlag)+1,r25
 591 030e 8093 0000 		sts ErrFlag,r24
 592               	.LM78:
 593 0312 86E0      		ldi r24,lo8(-8186)
 594 0314 90EE      		ldi r25,hi8(-8186)
 595 0316 9093 0000 		sts (ErrCodeDisplay)+1,r25
 596 031a 8093 0000 		sts ErrCodeDisplay,r24
 597               	.L47:
 598               	.LBE49:
 599               	.LBE48:
 600               	.LM79:
 601 031e 8CB1      		in r24,44-32
 602 0320 8093 0000 		sts RXDataTemp,r24
 603               	.LM80:
 604 0324 8091 0000 		lds r24,RxMode
 605 0328 8130      		cpi r24,lo8(1)
 606 032a 01F0      		breq .L50
 607 032c 8130      		cpi r24,lo8(1)
 608 032e 00F0      		brlo .L49
 609 0330 8430      		cpi r24,lo8(4)
 610 0332 00F0      		brlo .+2
 611 0334 00C0      		rjmp .L48
 612 0336 00C0      		rjmp .L56
 613               	.L49:
 614               	.LM81:
 615 0338 8091 0000 		lds r24,RXDataTemp
 616 033c 8093 0000 		sts RxFrame,r24
 617               	.LM82:
 618 0340 8091 0000 		lds r24,RXDataTemp
 619 0344 8093 0000 		sts RxArrayTemp,r24
 620               	.LM83:
 621 0348 81E0      		ldi r24,lo8(1)
 622 034a 00C0      		rjmp .L55
 623               	.L50:
 624               	.LM84:
 625 034c 8091 0000 		lds r24,RXDataTemp
 626 0350 8093 0000 		sts RxFrame+1,r24
 627               	.LM85:
 628 0354 8091 0000 		lds r24,RXDataTemp
 629 0358 8093 0000 		sts RxArrayTemp+1,r24
 630               	.LM86:
 631 035c 80E0      		ldi r24,lo8(RxArrayTemp+2)
 632 035e 90E0      		ldi r25,hi8(RxArrayTemp+2)
 633 0360 9093 0000 		sts (RxFrame+2)+1,r25
 634 0364 8093 0000 		sts RxFrame+2,r24
 635               	.LM87:
 636 0368 1092 0000 		sts (RxFrame+4)+1,__zero_reg__
 637 036c 1092 0000 		sts RxFrame+4,__zero_reg__
 638               	.LM88:
 639 0370 82E0      		ldi r24,lo8(2)
 640 0372 00C0      		rjmp .L55
 641               	.L56:
 642               	.LM89:
 643 0374 E091 0000 		lds r30,RxFrame+2
 644 0378 F091 0000 		lds r31,(RxFrame+2)+1
 645 037c 8091 0000 		lds r24,RXDataTemp
 646 0380 8193      		st Z+,r24
 647 0382 F093 0000 		sts (RxFrame+2)+1,r31
 648 0386 E093 0000 		sts RxFrame+2,r30
 649               	.LM90:
 650 038a 8091 0000 		lds r24,RxFrame+4
 651 038e 9091 0000 		lds r25,(RxFrame+4)+1
 652 0392 0196      		adiw r24,1
 653 0394 9093 0000 		sts (RxFrame+4)+1,r25
 654 0398 8093 0000 		sts RxFrame+4,r24
 655               	.LM91:
 656 039c 8091 0000 		lds r24,RxFrame+4
 657 03a0 9091 0000 		lds r25,(RxFrame+4)+1
 658 03a4 4297      		sbiw r24,18
 659 03a6 01F4      		brne .L52
 660               	.LM92:
 661 03a8 80E0      		ldi r24,lo8(RxArrayTemp+2)
 662 03aa 90E0      		ldi r25,hi8(RxArrayTemp+2)
 663 03ac 9093 0000 		sts (RxFrame+2)+1,r25
 664 03b0 8093 0000 		sts RxFrame+2,r24
 665               	.LM93:
 666 03b4 1092 0000 		sts (RxFrame+4)+1,__zero_reg__
 667 03b8 1092 0000 		sts RxFrame+4,__zero_reg__
 668               	.LBB50:
 669               	.LBB51:
 670               	.LM94:
 671 03bc 81E0      		ldi r24,lo8(1)
 672 03be 90E0      		ldi r25,hi8(1)
 673 03c0 9093 0000 		sts (ErrFlag)+1,r25
 674 03c4 8093 0000 		sts ErrFlag,r24
 675               	.LM95:
 676 03c8 87E0      		ldi r24,lo8(-8185)
 677 03ca 90EE      		ldi r25,hi8(-8185)
 678 03cc 9093 0000 		sts (ErrCodeDisplay)+1,r25
 679 03d0 8093 0000 		sts ErrCodeDisplay,r24
 680               	.L52:
 681               	.LBE51:
 682               	.LBE50:
 683               	.LM96:
 684 03d4 83E0      		ldi r24,lo8(3)
 685               	.L55:
 686 03d6 8093 0000 		sts RxMode,r24
 687               	.L48:
 688               	.LM97:
 689 03da 00D0      		rcall RxOverrunTimer
 690               	.LM98:
 691               	/* #APP */
 692               	 ;  302 "main.c" 1
 693 03dc 7894      		sei
 694               	 ;  0 "" 2
 695               	/* #NOAPP */
 696               	.L53:
 697               	/* epilogue start */
 698               	.LM99:
 699 03de FF91      		pop r31
 700 03e0 EF91      		pop r30
 701 03e2 BF91      		pop r27
 702 03e4 AF91      		pop r26
 703 03e6 9F91      		pop r25
 704 03e8 8F91      		pop r24
 705 03ea 7F91      		pop r23
 706 03ec 6F91      		pop r22
 707 03ee 5F91      		pop r21
 708 03f0 4F91      		pop r20
 709 03f2 3F91      		pop r19
 710 03f4 2F91      		pop r18
 711 03f6 0F90      		pop r0
 712 03f8 0FBE      		out __SREG__,r0
 713 03fa 0F90      		pop r0
 714 03fc 1F90      		pop __zero_reg__
 715 03fe 1895      		reti
 716               	.LFE21:
 718               	.global	ErrorDisplay
 720               	ErrorDisplay:
 721               	.LFB31:
 722               	.LM100:
 723               	.LVL27:
 724               	/* prologue: function */
 725               	/* frame size = 0 */
 726               	.LM101:
 727 0400 21E0      		ldi r18,lo8(1)
 728 0402 30E0      		ldi r19,hi8(1)
 729 0404 3093 0000 		sts (ErrFlag)+1,r19
 730 0408 2093 0000 		sts ErrFlag,r18
 731               	.LM102:
 732 040c 9F70      		andi r25,hi8(4095)
 733               	.LVL28:
 734 040e 906E      		ori r25,hi8(-8192)
 735 0410 9093 0000 		sts (ErrCodeDisplay)+1,r25
 736 0414 8093 0000 		sts ErrCodeDisplay,r24
 737               	/* epilogue start */
 738               	.LM103:
 739 0418 0895      		ret
 740               	.LFE31:
 742               	.global	IsErrorOrNot
 744               	IsErrorOrNot:
 745               	.LFB32:
 746               	.LM104:
 747               	/* prologue: function */
 748               	/* frame size = 0 */
 749               	.LM105:
 750 041a 8091 0000 		lds r24,ErrFlag
 751 041e 9091 0000 		lds r25,(ErrFlag)+1
 752 0422 892B      		or r24,r25
 753 0424 01F0      		breq .L61
 754               	.LM106:
 755 0426 8091 0000 		lds r24,ErrFlag
 756 042a 9091 0000 		lds r25,(ErrFlag)+1
 757               	.LM107:
 758 042e 1092 0000 		sts (ErrFlag)+1,__zero_reg__
 759 0432 1092 0000 		sts ErrFlag,__zero_reg__
 760               	.LM108:
 761 0436 8091 0000 		lds r24,ErrCodeDisplay
 762 043a 9091 0000 		lds r25,(ErrCodeDisplay)+1
 763 043e 00D0      		rcall DisplayHex
 764               	.L61:
 765 0440 0895      		ret
 766               	.LFE32:
 768               	.global	FrameCRC16IsOK
 770               	FrameCRC16IsOK:
 771               	.LFB30:
 772               	.LM109:
 773 0442 FF92      		push r15
 774 0444 0F93      		push r16
 775 0446 1F93      		push r17
 776 0448 DF93      		push r29
 777 044a CF93      		push r28
 778 044c CDB7      		in r28,__SP_L__
 779 044e DEB7      		in r29,__SP_H__
 780 0450 6C97      		sbiw r28,28
 781 0452 0FB6      		in __tmp_reg__,__SREG__
 782 0454 F894      		cli
 783 0456 DEBF      		out __SP_H__,r29
 784 0458 0FBE      		out __SREG__,__tmp_reg__
 785 045a CDBF      		out __SP_L__,r28
 786               	/* prologue: function */
 787               	/* frame size = 28 */
 788 045c F22F      		mov r31,r18
 789 045e 2D8B      		std Y+21,r18
 790 0460 3E8B      		std Y+22,r19
 791 0462 242F      		mov r18,r20
 792 0464 4F8B      		std Y+23,r20
 793 0466 588F      		std Y+24,r21
 794 0468 698F      		std Y+25,r22
 795 046a 7A8F      		std Y+26,r23
 796 046c 8B8F      		std Y+27,r24
 797 046e 9C8F      		std Y+28,r25
 798               	.LM110:
 799 0470 122F      		mov r17,r18
 800 0472 698D      		ldd r22,Y+25
 801 0474 7A8D      		ldd r23,Y+26
 802 0476 092F      		mov r16,r25
 803 0478 F82E      		mov r15,r24
 804               	.LM111:
 805 047a F983      		std Y+1,r31
 806               	.LM112:
 807 047c 3A83      		std Y+2,r19
 808 047e 352F      		mov r19,r21
 809 0480 C901      		movw r24,r18
 810 0482 DC01      		movw r26,r24
 811               	.LM113:
 812 0484 9B01      		movw r18,r22
 813 0486 2250      		subi r18,lo8(-(-2))
 814 0488 3040      		sbci r19,hi8(-(-2))
 815               	.LM114:
 816 048a AE01      		movw r20,r28
 817 048c 4D5F      		subi r20,lo8(-(3))
 818 048e 5F4F      		sbci r21,hi8(-(3))
 819 0490 00C0      		rjmp .L63
 820               	.LVL29:
 821               	.L64:
 822 0492 E40F      		add r30,r20
 823 0494 F51F      		adc r31,r21
 824               	.LVL30:
 825 0496 8D91      		ld r24,X+
 826 0498 8083      		st Z,r24
 827               	.L63:
 828 049a 8A2F      		mov r24,r26
 829               	.LVL31:
 830 049c 811B      		sub r24,r17
 831               	.LM115:
 832 049e E82F      		mov r30,r24
 833 04a0 F0E0      		ldi r31,lo8(0)
 834 04a2 E217      		cp r30,r18
 835 04a4 F307      		cpc r31,r19
 836 04a6 00F0      		brlo .L64
 837               	.LVL32:
 838               	.LM116:
 839 04a8 CE01      		movw r24,r28
 840 04aa 0196      		adiw r24,1
 841 04ac 00D0      		rcall CRC16
 842               	.LVL33:
 843               	.LM117:
 844 04ae 0817      		cp r16,r24
 845 04b0 01F0      		breq .L65
 846 04b2 80E0      		ldi r24,lo8(0)
 847 04b4 00C0      		rjmp .L66
 848               	.L65:
 849 04b6 80E0      		ldi r24,lo8(0)
 850 04b8 F916      		cp r15,r25
 851               	.LVL34:
 852 04ba 01F4      		brne .L66
 853 04bc 81E0      		ldi r24,lo8(1)
 854               	.L66:
 855               	/* epilogue start */
 856               	.LM118:
 857 04be 6C96      		adiw r28,28
 858 04c0 0FB6      		in __tmp_reg__,__SREG__
 859 04c2 F894      		cli
 860 04c4 DEBF      		out __SP_H__,r29
 861 04c6 0FBE      		out __SREG__,__tmp_reg__
 862 04c8 CDBF      		out __SP_L__,r28
 863 04ca CF91      		pop r28
 864 04cc DF91      		pop r29
 865 04ce 1F91      		pop r17
 866 04d0 0F91      		pop r16
 867 04d2 FF90      		pop r15
 868 04d4 0895      		ret
 869               	.LFE30:
 871               	.global	SendDataToPC
 873               	SendDataToPC:
 874               	.LFB29:
 875               	.LM119:
 876               	.LVL35:
 877 04d6 EF92      		push r14
 878 04d8 FF92      		push r15
 879 04da 0F93      		push r16
 880 04dc 1F93      		push r17
 881 04de DF93      		push r29
 882 04e0 CF93      		push r28
 883 04e2 CDB7      		in r28,__SP_L__
 884 04e4 DEB7      		in r29,__SP_H__
 885 04e6 6497      		sbiw r28,20
 886 04e8 0FB6      		in __tmp_reg__,__SREG__
 887 04ea F894      		cli
 888 04ec DEBF      		out __SP_H__,r29
 889 04ee 0FBE      		out __SREG__,__tmp_reg__
 890 04f0 CDBF      		out __SP_L__,r28
 891               	/* prologue: function */
 892               	/* frame size = 20 */
 893 04f2 8B01      		movw r16,r22
 894               	.LM120:
 895 04f4 9091 0000 		lds r25,DeviceAddr
 896 04f8 9983      		std Y+1,r25
 897               	.LM121:
 898 04fa 8A83      		std Y+2,r24
 899               	.LM122:
 900 04fc 8630      		cpi r24,lo8(6)
 901 04fe 01F4      		brne .L70
 902               	.LVL36:
 903 0500 82E0      		ldi r24,lo8(2)
 904               	.LVL37:
 905 0502 00C0      		rjmp .L71
 906               	.LVL38:
 907               	.L70:
 908               	.LM123:
 909 0504 4B83      		std Y+3,r20
 910 0506 83E0      		ldi r24,lo8(3)
 911               	.LVL39:
 912               	.L71:
 913 0508 20E0      		ldi r18,lo8(0)
 914               	.LVL40:
 915 050a 682F      		mov r22,r24
 916 050c 70E0      		ldi r23,lo8(0)
 917               	.LVL41:
 918 050e 7E01      		movw r14,r28
 919 0510 0894      		sec
 920 0512 E11C      		adc r14,__zero_reg__
 921 0514 F11C      		adc r15,__zero_reg__
 922 0516 00C0      		rjmp .L72
 923               	.LVL42:
 924               	.L73:
 925               	.LM124:
 926 0518 F701      		movw r30,r14
 927 051a EA0F      		add r30,r26
 928 051c FB1F      		adc r31,r27
 929 051e E60F      		add r30,r22
 930 0520 F71F      		adc r31,r23
 931 0522 A00F      		add r26,r16
 932 0524 B11F      		adc r27,r17
 933 0526 8C91      		ld r24,X
 934 0528 8083      		st Z,r24
 935               	.LM125:
 936 052a 2F5F      		subi r18,lo8(-(1))
 937               	.LVL43:
 938               	.L72:
 939 052c A22F      		mov r26,r18
 940 052e B0E0      		ldi r27,lo8(0)
 941 0530 A417      		cp r26,r20
 942 0532 B507      		cpc r27,r21
 943 0534 00F0      		brlo .L73
 944               	.LM126:
 945 0536 8B01      		movw r16,r22
 946               	.LVL44:
 947 0538 040F      		add r16,r20
 948 053a 151F      		adc r17,r21
 949 053c C701      		movw r24,r14
 950 053e B801      		movw r22,r16
 951               	.LVL45:
 952 0540 00D0      		rcall CRC16
 953               	.LVL46:
 954               	.LM127:
 955 0542 929A      		sbi 50-32,2
 956 0544 20E0      		ldi r18,lo8(0)
 957               	.LVL47:
 958               	.LM128:
 959 0546 AE01      		movw r20,r28
 960 0548 4F5F      		subi r20,lo8(-(1))
 961 054a 5F4F      		sbci r21,hi8(-(1))
 962 054c 00C0      		rjmp .L74
 963               	.LVL48:
 964               	.L76:
 965 054e E40F      		add r30,r20
 966 0550 F51F      		adc r31,r21
 967               	.LVL49:
 968 0552 3081      		ld r19,Z
 969               	.L75:
 970               	.LBB52:
 971               	.LBB53:
 972               	.LM129:
 973 0554 5D9B      		sbis 43-32,5
 974 0556 00C0      		rjmp .L75
 975               	.LM130:
 976 0558 3CB9      		out 44-32,r19
 977               	.LBE53:
 978               	.LBE52:
 979               	.LM131:
 980 055a 2F5F      		subi r18,lo8(-(1))
 981               	.LVL50:
 982               	.L74:
 983 055c E22F      		mov r30,r18
 984 055e F0E0      		ldi r31,lo8(0)
 985 0560 E017      		cp r30,r16
 986 0562 F107      		cpc r31,r17
 987 0564 00F0      		brlo .L76
 988               	.LVL51:
 989               	.L80:
 990               	.LBB54:
 991               	.LBB55:
 992               	.LM132:
 993 0566 5D9B      		sbis 43-32,5
 994 0568 00C0      		rjmp .L80
 995               	.LM133:
 996 056a 8CB9      		out 44-32,r24
 997               	.LVL52:
 998               	.L78:
 999               	.LBE55:
 1000               	.LBE54:
 1001               	.LBB56:
 1002               	.LBB57:
 1003               	.LM134:
 1004 056c 5D9B      		sbis 43-32,5
 1005 056e 00C0      		rjmp .L78
 1006               	.LM135:
 1007 0570 9CB9      		out 44-32,r25
 1008               	.LVL53:
 1009               	.LBE57:
 1010               	.LBE56:
 1011               	.LBB58:
 1012               	.LBB59:
 1013               	.LBB60:
 1014               	.LBB61:
 1015               	.LM136:
 1016 0572 80E2      		ldi r24,lo8(20000)
 1017 0574 9EE4      		ldi r25,hi8(20000)
 1018               	.LVL54:
 1019               	/* #APP */
 1020               	 ;  105 "d:/program files/winavr-20100110/lib/gcc/../../avr/include/util/delay_basic.h" 1
 1021 0576 0197      		1: sbiw r24,1
 1022 0578 01F4      		brne 1b
 1023               	 ;  0 "" 2
 1024               	/* #NOAPP */
 1025               	.LBE61:
 1026               	.LBE60:
 1027               	.LBE59:
 1028               	.LBE58:
 1029               	.LM137:
 1030 057a 9298      		cbi 50-32,2
 1031               	/* epilogue start */
 1032               	.LM138:
 1033 057c 6496      		adiw r28,20
 1034 057e 0FB6      		in __tmp_reg__,__SREG__
 1035 0580 F894      		cli
 1036 0582 DEBF      		out __SP_H__,r29
 1037 0584 0FBE      		out __SREG__,__tmp_reg__
 1038 0586 CDBF      		out __SP_L__,r28
 1039 0588 CF91      		pop r28
 1040 058a DF91      		pop r29
 1041 058c 1F91      		pop r17
 1042 058e 0F91      		pop r16
 1043 0590 FF90      		pop r15
 1044 0592 EF90      		pop r14
 1045 0594 0895      		ret
 1046               	.LFE29:
 1048               	.global	ADCOutOne
 1050               	ADCOutOne:
 1051               	.LFB23:
 1052               	.LM139:
 1053 0596 EF92      		push r14
 1054 0598 FF92      		push r15
 1055 059a 0F93      		push r16
 1056 059c 1F93      		push r17
 1057               	/* prologue: function */
 1058               	/* frame size = 0 */
 1059               	.LM140:
 1060 059e 00D0      		rcall ReadADS1110
 1061 05a0 7C01      		movw r14,r24
 1062 05a2 00D0      		rcall ReadADS1110
 1063 05a4 00E0      		ldi r16,lo8(0)
 1064 05a6 10E0      		ldi r17,hi8(0)
 1065 05a8 A0E0      		ldi r26,lo8(0)
 1066 05aa B0E0      		ldi r27,hi8(0)
 1067 05ac E80E      		add r14,r24
 1068 05ae F91E      		adc r15,r25
 1069 05b0 0A1F      		adc r16,r26
 1070 05b2 1B1F      		adc r17,r27
 1071 05b4 1695      		lsr r17
 1072 05b6 0795      		ror r16
 1073 05b8 F794      		ror r15
 1074 05ba E794      		ror r14
 1075               	.LM141:
 1076 05bc C701      		movw r24,r14
 1077               	/* epilogue start */
 1078 05be 1F91      		pop r17
 1079 05c0 0F91      		pop r16
 1080 05c2 FF90      		pop r15
 1081 05c4 EF90      		pop r14
 1082 05c6 0895      		ret
 1083               	.LFE23:
 1085               	.global	ADCOut
 1087               	ADCOut:
 1088               	.LFB24:
 1089               	.LM142:
 1090 05c8 BF92      		push r11
 1091 05ca CF92      		push r12
 1092 05cc DF92      		push r13
 1093 05ce EF92      		push r14
 1094 05d0 FF92      		push r15
 1095 05d2 0F93      		push r16
 1096 05d4 1F93      		push r17
 1097 05d6 CF93      		push r28
 1098 05d8 DF93      		push r29
 1099               	/* prologue: function */
 1100               	/* frame size = 0 */
 1101               	.LM143:
 1102 05da 00D0      		rcall ADCOutOne
 1103 05dc EC01      		movw r28,r24
 1104               	.LVL55:
 1105               	.LM144:
 1106 05de 00D0      		rcall ADCOutOne
 1107 05e0 6C01      		movw r12,r24
 1108               	.LVL56:
 1109 05e2 EE24      		clr r14
 1110 05e4 FF24      		clr r15
 1111 05e6 8701      		movw r16,r14
 1112               	.LVL57:
 1113 05e8 BB24      		clr r11
 1114               	.LVL58:
 1115               	.L89:
 1116               	.LM145:
 1117 05ea 00D0      		rcall ADCOutOne
 1118               	.LVL59:
 1119 05ec 8C15      		cp r24,r12
 1120 05ee 9D05      		cpc r25,r13
 1121               	.LVL60:
 1122 05f0 00F4      		brsh .L87
 1123 05f2 6C01      		movw r12,r24
 1124               	.L87:
 1125 05f4 C817      		cp r28,r24
 1126 05f6 D907      		cpc r29,r25
 1127 05f8 00F4      		brsh .L88
 1128 05fa EC01      		movw r28,r24
 1129               	.L88:
 1130               	.LM146:
 1131 05fc A0E0      		ldi r26,lo8(0)
 1132 05fe B0E0      		ldi r27,hi8(0)
 1133               	.LVL61:
 1134 0600 E80E      		add r14,r24
 1135 0602 F91E      		adc r15,r25
 1136 0604 0A1F      		adc r16,r26
 1137 0606 1B1F      		adc r17,r27
 1138               	.LM147:
 1139 0608 B394      		inc r11
 1140 060a 82E2      		ldi r24,lo8(34)
 1141               	.LVL62:
 1142 060c B816      		cp r11,r24
 1143 060e 01F4      		brne .L89
 1144               	.LM148:
 1145 0610 8091 0000 		lds r24,ADC_Arrya_Num
 1146 0614 9091 0000 		lds r25,(ADC_Arrya_Num)+1
 1147 0618 0196      		adiw r24,1
 1148 061a 9093 0000 		sts (ADC_Arrya_Num)+1,r25
 1149 061e 8093 0000 		sts ADC_Arrya_Num,r24
 1150               	.LM149:
 1151 0622 8034      		cpi r24,64
 1152 0624 9105      		cpc r25,__zero_reg__
 1153 0626 00F0      		brlo .L90
 1154               	.LM150:
 1155 0628 1092 0000 		sts (ADC_Arrya_Num)+1,__zero_reg__
 1156 062c 1092 0000 		sts ADC_Arrya_Num,__zero_reg__
 1157               	.L90:
 1158               	.LM151:
 1159 0630 CE01      		movw r24,r28
 1160 0632 A0E0      		ldi r26,lo8(0)
 1161 0634 B0E0      		ldi r27,hi8(0)
 1162               	.LVL63:
 1163 0636 E81A      		sub r14,r24
 1164 0638 F90A      		sbc r15,r25
 1165 063a 0A0B      		sbc r16,r26
 1166 063c 1B0B      		sbc r17,r27
 1167               	.LM152:
 1168 063e E091 0000 		lds r30,ADC_Arrya_Num
 1169 0642 F091 0000 		lds r31,(ADC_Arrya_Num)+1
 1170 0646 EE0F      		lsl r30
 1171 0648 FF1F      		rol r31
 1172 064a E050      		subi r30,lo8(-(ADC_Arrya))
 1173 064c F040      		sbci r31,hi8(-(ADC_Arrya))
 1174 064e C601      		movw r24,r12
 1175 0650 A0E0      		ldi r26,lo8(0)
 1176 0652 B0E0      		ldi r27,hi8(0)
 1177               	.LVL64:
 1178 0654 E81A      		sub r14,r24
 1179 0656 F90A      		sbc r15,r25
 1180 0658 0A0B      		sbc r16,r26
 1181 065a 1B0B      		sbc r17,r27
 1182 065c A5E0      		ldi r26,5
 1183 065e 1695      	1:	lsr r17
 1184 0660 0795      		ror r16
 1185 0662 F794      		ror r15
 1186 0664 E794      		ror r14
 1187 0666 AA95      		dec r26
 1188 0668 01F4      		brne 1b
 1189               	.LVL65:
 1190 066a F182      		std Z+1,r15
 1191 066c E082      		st Z,r14
 1192 066e E0E0      		ldi r30,lo8(ADC_Arrya)
 1193 0670 F0E0      		ldi r31,hi8(ADC_Arrya)
 1194 0672 20E0      		ldi r18,lo8(0)
 1195 0674 30E0      		ldi r19,hi8(0)
 1196 0676 40E0      		ldi r20,hlo8(0)
 1197 0678 50E0      		ldi r21,hhi8(0)
 1198               	.LVL66:
 1199               	.L91:
 1200               	.LM153:
 1201 067a 8191      		ld r24,Z+
 1202 067c 9191      		ld r25,Z+
 1203               	.LVL67:
 1204 067e A0E0      		ldi r26,lo8(0)
 1205 0680 B0E0      		ldi r27,hi8(0)
 1206 0682 280F      		add r18,r24
 1207 0684 391F      		adc r19,r25
 1208 0686 4A1F      		adc r20,r26
 1209 0688 5B1F      		adc r21,r27
 1210               	.LM154:
 1211 068a 80E0      		ldi r24,hi8(ADC_Arrya+128)
 1212 068c E030      		cpi r30,lo8(ADC_Arrya+128)
 1213 068e F807      		cpc r31,r24
 1214 0690 01F4      		brne .L91
 1215 0692 76E0      		ldi r23,6
 1216 0694 5695      	1:	lsr r21
 1217 0696 4795      		ror r20
 1218 0698 3795      		ror r19
 1219 069a 2795      		ror r18
 1220 069c 7A95      		dec r23
 1221 069e 01F4      		brne 1b
 1222               	.LVL68:
 1223               	.LM155:
 1224 06a0 C901      		movw r24,r18
 1225               	/* epilogue start */
 1226 06a2 DF91      		pop r29
 1227 06a4 CF91      		pop r28
 1228               	.LVL69:
 1229 06a6 1F91      		pop r17
 1230 06a8 0F91      		pop r16
 1231 06aa FF90      		pop r15
 1232 06ac EF90      		pop r14
 1233 06ae DF90      		pop r13
 1234 06b0 CF90      		pop r12
 1235               	.LVL70:
 1236 06b2 BF90      		pop r11
 1237               	.LVL71:
 1238 06b4 0895      		ret
 1239               	.LFE24:
 1241               	.global	ChangeADCResult
 1243               	ChangeADCResult:
 1244               	.LFB27:
 1245               	.LM156:
 1246 06b6 EF92      		push r14
 1247 06b8 FF92      		push r15
 1248 06ba 0F93      		push r16
 1249 06bc 1F93      		push r17
 1250               	/* prologue: function */
 1251               	/* frame size = 0 */
 1252               	.LM157:
 1253 06be 00D0      		rcall ADCOut
 1254 06c0 9093 0000 		sts (ADCResult)+1,r25
 1255 06c4 8093 0000 		sts ADCResult,r24
 1256               	.LM158:
 1257 06c8 8091 0000 		lds r24,ADCResult
 1258 06cc 9091 0000 		lds r25,(ADCResult)+1
 1259 06d0 2091 0000 		lds r18,ADJ_ZERO
 1260 06d4 3091 0000 		lds r19,(ADJ_ZERO)+1
 1261 06d8 820F      		add r24,r18
 1262 06da 931F      		adc r25,r19
 1263 06dc 9093 0000 		sts (ADCResult)+1,r25
 1264 06e0 8093 0000 		sts ADCResult,r24
 1265               	.LM159:
 1266 06e4 2091 0000 		lds r18,ADCResult
 1267 06e8 3091 0000 		lds r19,(ADCResult)+1
 1268 06ec 6091 0000 		lds r22,VALUE_MAX
 1269 06f0 7091 0000 		lds r23,(VALUE_MAX)+1
 1270 06f4 E091 0000 		lds r30,VALUE_MIN
 1271 06f8 F091 0000 		lds r31,(VALUE_MIN)+1
 1272 06fc E090 0000 		lds r14,VALUE_MIN
 1273 0700 F090 0000 		lds r15,(VALUE_MIN)+1
 1274               	.LM160:
 1275 0704 6E1B      		sub r22,r30
 1276 0706 7F0B      		sbc r23,r31
 1277 0708 80E0      		ldi r24,lo8(0)
 1278 070a 90E0      		ldi r25,hi8(0)
 1279 070c 40E0      		ldi r20,lo8(0)
 1280 070e 50E0      		ldi r21,hi8(0)
 1281 0710 00D0      		rcall __mulsi3
 1282 0712 1FE0      		ldi r17,15
 1283 0714 9595      	1:	asr r25
 1284 0716 8795      		ror r24
 1285 0718 7795      		ror r23
 1286 071a 6795      		ror r22
 1287 071c 1A95      		dec r17
 1288 071e 01F4      		brne 1b
 1289 0720 00E0      		ldi r16,lo8(0)
 1290 0722 10E0      		ldi r17,hi8(0)
 1291 0724 E60E      		add r14,r22
 1292 0726 F71E      		adc r15,r23
 1293 0728 081F      		adc r16,r24
 1294 072a 191F      		adc r17,r25
 1295 072c F092 0000 		sts (ADCResult)+1,r15
 1296 0730 E092 0000 		sts ADCResult,r14
 1297               	.LM161:
 1298 0734 2091 0000 		lds r18,ADCResult
 1299 0738 3091 0000 		lds r19,(ADCResult)+1
 1300               	.LM162:
 1301 073c C901      		movw r24,r18
 1302               	/* epilogue start */
 1303 073e 1F91      		pop r17
 1304 0740 0F91      		pop r16
 1305 0742 FF90      		pop r15
 1306 0744 EF90      		pop r14
 1307 0746 0895      		ret
 1308               	.LFE27:
 1310               	.global	RefreshLED
 1312               	RefreshLED:
 1313               	.LFB28:
 1314               	.LM163:
 1315               	/* prologue: function */
 1316               	/* frame size = 0 */
 1317               	.LM164:
 1318 0748 00D0      		rcall ChangeADCResult
 1319 074a 9C01      		movw r18,r24
 1320               	.LVL72:
 1321               	.LM165:
 1322 074c 8091 0000 		lds r24,T_C
 1323 0750 9091 0000 		lds r25,(T_C)+1
 1324 0754 2817      		cp r18,r24
 1325 0756 3907      		cpc r19,r25
 1326 0758 00F4      		brsh .L98
 1327               	.LM166:
 1328 075a 8091 0000 		lds r24,T_C
 1329 075e 9091 0000 		lds r25,(T_C)+1
 1330 0762 821B      		sub r24,r18
 1331 0764 930B      		sbc r25,r19
 1332 0766 00C0      		rjmp .L104
 1333               	.L98:
 1334               	.LM167:
 1335 0768 8091 0000 		lds r24,T_C
 1336 076c 9091 0000 		lds r25,(T_C)+1
 1337 0770 A901      		movw r20,r18
 1338 0772 481B      		sub r20,r24
 1339 0774 590B      		sbc r21,r25
 1340 0776 CA01      		movw r24,r20
 1341               	.L104:
 1342 0778 0497      		sbiw r24,4
 1343 077a 00F0      		brlo .L99
 1344               	.LM168:
 1345 077c 3093 0000 		sts (T_C)+1,r19
 1346 0780 2093 0000 		sts T_C,r18
 1347               	.LM169:
 1348 0784 C901      		movw r24,r18
 1349 0786 00D0      		rcall Display10
 1350               	.LVL73:
 1351               	.L99:
 1352               	.LM170:
 1353 0788 8091 0000 		lds r24,TimerOver
 1354 078c 8823      		tst r24
 1355 078e 01F0      		breq .L101
 1356               	.LM171:
 1357 0790 8091 0000 		lds r24,T_C
 1358 0794 9091 0000 		lds r25,(T_C)+1
 1359 0798 00D0      		rcall Display10
 1360               	.LVL74:
 1361               	.LM172:
 1362 079a 00D0      		rcall ChangeADCResult
 1363 079c 9093 0000 		sts (T_C)+1,r25
 1364 07a0 8093 0000 		sts T_C,r24
 1365               	.LM173:
 1366 07a4 1092 0000 		sts TimerOver,__zero_reg__
 1367               	.LM174:
 1368 07a8 88EE      		ldi r24,lo8(1000)
 1369 07aa 93E0      		ldi r25,hi8(1000)
 1370 07ac 00D0      		rcall TimerDelayMs
 1371               	.LM175:
 1372 07ae 82B3      		in r24,50-32
 1373 07b0 8058      		subi r24,lo8(-(-128))
 1374 07b2 82BB      		out 50-32,r24
 1375               	.LM176:
 1376 07b4 8091 0000 		lds r24,ErrFlag
 1377 07b8 9091 0000 		lds r25,(ErrFlag)+1
 1378 07bc 892B      		or r24,r25
 1379 07be 01F0      		breq .L101
 1380               	.LM177:
 1381 07c0 8091 0000 		lds r24,ErrFlag
 1382 07c4 9091 0000 		lds r25,(ErrFlag)+1
 1383 07c8 0196      		adiw r24,1
 1384 07ca 9093 0000 		sts (ErrFlag)+1,r25
 1385 07ce 8093 0000 		sts ErrFlag,r24
 1386               	.LVL75:
 1387               	.L101:
 1388 07d2 0895      		ret
 1389               	.LFE28:
 1391               	.global	ChangeADCResult_LL
 1393               	ChangeADCResult_LL:
 1394               	.LFB25:
 1395               	.LM178:
 1396 07d4 4F92      		push r4
 1397 07d6 5F92      		push r5
 1398 07d8 6F92      		push r6
 1399 07da 7F92      		push r7
 1400 07dc 8F92      		push r8
 1401 07de 9F92      		push r9
 1402 07e0 AF92      		push r10
 1403 07e2 BF92      		push r11
 1404 07e4 CF92      		push r12
 1405 07e6 DF92      		push r13
 1406 07e8 EF92      		push r14
 1407 07ea FF92      		push r15
 1408 07ec 0F93      		push r16
 1409 07ee 1F93      		push r17
 1410               	/* prologue: function */
 1411               	/* frame size = 0 */
 1412               	.LM179:
 1413 07f0 00D0      		rcall ADCOut
 1414 07f2 A0E0      		ldi r26,lo8(0)
 1415 07f4 B0E0      		ldi r27,hi8(0)
 1416 07f6 BC01      		movw r22,r24
 1417 07f8 CD01      		movw r24,r26
 1418 07fa 00D0      		rcall __floatunsisf
 1419 07fc 3B01      		movw r6,r22
 1420 07fe 4C01      		movw r8,r24
 1421               	.LM180:
 1422 0800 E090 0000 		lds r14,VALUE_MAX
 1423 0804 F090 0000 		lds r15,(VALUE_MAX)+1
 1424 0808 4090 0000 		lds r4,VALUE_MIN
 1425 080c 5090 0000 		lds r5,(VALUE_MIN)+1
 1426 0810 A090 0000 		lds r10,VALUE_MIN
 1427 0814 B090 0000 		lds r11,(VALUE_MIN)+1
 1428 0818 6091 0000 		lds r22,ADJ_ZERO
 1429 081c 7091 0000 		lds r23,(ADJ_ZERO)+1
 1430 0820 80E0      		ldi r24,lo8(0)
 1431 0822 90E0      		ldi r25,hi8(0)
 1432 0824 00D0      		rcall __floatunsisf
 1433 0826 9B01      		movw r18,r22
 1434 0828 AC01      		movw r20,r24
 1435 082a C401      		movw r24,r8
 1436 082c B301      		movw r22,r6
 1437 082e 00D0      		rcall __addsf3
 1438 0830 3B01      		movw r6,r22
 1439 0832 4C01      		movw r8,r24
 1440 0834 E418      		sub r14,r4
 1441 0836 F508      		sbc r15,r5
 1442 0838 00E0      		ldi r16,lo8(0)
 1443 083a 10E0      		ldi r17,hi8(0)
 1444 083c C801      		movw r24,r16
 1445 083e B701      		movw r22,r14
 1446 0840 00D0      		rcall __floatunsisf
 1447 0842 9B01      		movw r18,r22
 1448 0844 AC01      		movw r20,r24
 1449 0846 C401      		movw r24,r8
 1450 0848 B301      		movw r22,r6
 1451 084a 00D0      		rcall __mulsf3
 1452 084c 20E0      		ldi r18,lo8(0x38000000)
 1453 084e 30E0      		ldi r19,hi8(0x38000000)
 1454 0850 40E0      		ldi r20,hlo8(0x38000000)
 1455 0852 58E3      		ldi r21,hhi8(0x38000000)
 1456 0854 00D0      		rcall __mulsf3
 1457 0856 7B01      		movw r14,r22
 1458 0858 8C01      		movw r16,r24
 1459 085a CC24      		clr r12
 1460 085c DD24      		clr r13
 1461 085e C601      		movw r24,r12
 1462 0860 B501      		movw r22,r10
 1463 0862 00D0      		rcall __floatunsisf
 1464 0864 9B01      		movw r18,r22
 1465 0866 AC01      		movw r20,r24
 1466 0868 C801      		movw r24,r16
 1467 086a B701      		movw r22,r14
 1468 086c 00D0      		rcall __addsf3
 1469               	.LM181:
 1470 086e 2091 0000 		lds r18,QC_K_h
 1471 0872 3091 0000 		lds r19,(QC_K_h)+1
 1472 0876 4091 0000 		lds r20,(QC_K_h)+2
 1473 087a 5091 0000 		lds r21,(QC_K_h)+3
 1474 087e 00D0      		rcall __addsf3
 1475 0880 00D0      		rcall sqrt
 1476               	.LM182:
 1477 0882 20E0      		ldi r18,lo8(0x40a00000)
 1478 0884 30E0      		ldi r19,hi8(0x40a00000)
 1479 0886 40EA      		ldi r20,hlo8(0x40a00000)
 1480 0888 50E4      		ldi r21,hhi8(0x40a00000)
 1481 088a 00D0      		rcall pow
 1482 088c 9B01      		movw r18,r22
 1483 088e AC01      		movw r20,r24
 1484 0890 CA01      		movw r24,r20
 1485 0892 B901      		movw r22,r18
 1486               	.LVL76:
 1487 0894 2091 0000 		lds r18,QC_C_
 1488 0898 3091 0000 		lds r19,(QC_C_)+1
 1489 089c 4091 0000 		lds r20,(QC_C_)+2
 1490 08a0 5091 0000 		lds r21,(QC_C_)+3
 1491               	.LVL77:
 1492 08a4 00D0      		rcall __mulsf3
 1493               	/* epilogue start */
 1494               	.LM183:
 1495 08a6 1F91      		pop r17
 1496 08a8 0F91      		pop r16
 1497 08aa FF90      		pop r15
 1498 08ac EF90      		pop r14
 1499 08ae DF90      		pop r13
 1500 08b0 CF90      		pop r12
 1501 08b2 BF90      		pop r11
 1502 08b4 AF90      		pop r10
 1503 08b6 9F90      		pop r9
 1504 08b8 8F90      		pop r8
 1505 08ba 7F90      		pop r7
 1506 08bc 6F90      		pop r6
 1507 08be 5F90      		pop r5
 1508 08c0 4F90      		pop r4
 1509 08c2 0895      		ret
 1510               	.LFE25:
 1512               	.global	RefreshLED_LL
 1514               	RefreshLED_LL:
 1515               	.LFB26:
 1516               	.LM184:
 1517 08c4 AF92      		push r10
 1518 08c6 BF92      		push r11
 1519 08c8 CF92      		push r12
 1520 08ca DF92      		push r13
 1521 08cc EF92      		push r14
 1522 08ce FF92      		push r15
 1523 08d0 0F93      		push r16
 1524 08d2 1F93      		push r17
 1525               	/* prologue: function */
 1526               	/* frame size = 0 */
 1527               	.LM185:
 1528 08d4 00D0      		rcall ChangeADCResult_LL
 1529 08d6 5B01      		movw r10,r22
 1530 08d8 6C01      		movw r12,r24
 1531               	.LVL78:
 1532               	.LM186:
 1533 08da E090 0000 		lds r14,LL_value
 1534 08de F090 0000 		lds r15,(LL_value)+1
 1535 08e2 0091 0000 		lds r16,(LL_value)+2
 1536 08e6 1091 0000 		lds r17,(LL_value)+3
 1537 08ea C801      		movw r24,r16
 1538 08ec B701      		movw r22,r14
 1539 08ee A601      		movw r20,r12
 1540 08f0 9501      		movw r18,r10
 1541 08f2 00D0      		rcall __gtsf2
 1542 08f4 1816      		cp __zero_reg__,r24
 1543 08f6 04F4      		brge .L118
 1544               	.LM187:
 1545 08f8 C801      		movw r24,r16
 1546 08fa B701      		movw r22,r14
 1547 08fc A601      		movw r20,r12
 1548 08fe 9501      		movw r18,r10
 1549 0900 00C0      		rjmp .L121
 1550               	.L118:
 1551               	.LM188:
 1552 0902 C601      		movw r24,r12
 1553 0904 B501      		movw r22,r10
 1554 0906 A801      		movw r20,r16
 1555 0908 9701      		movw r18,r14
 1556               	.L121:
 1557 090a 00D0      		rcall __subsf3
 1558 090c 20E0      		ldi r18,lo8(0x40400000)
 1559 090e 30E0      		ldi r19,hi8(0x40400000)
 1560 0910 40E4      		ldi r20,hlo8(0x40400000)
 1561 0912 50E4      		ldi r21,hhi8(0x40400000)
 1562 0914 00D0      		rcall __gtsf2
 1563 0916 1816      		cp __zero_reg__,r24
 1564 0918 04F4      		brge .L110
 1565               	.LM189:
 1566 091a A092 0000 		sts LL_value,r10
 1567 091e B092 0000 		sts (LL_value)+1,r11
 1568 0922 C092 0000 		sts (LL_value)+2,r12
 1569 0926 D092 0000 		sts (LL_value)+3,r13
 1570               	.LM190:
 1571 092a C601      		movw r24,r12
 1572 092c B501      		movw r22,r10
 1573 092e 00D0      		rcall ceil
 1574               	.LM191:
 1575 0930 00D0      		rcall __fixsfsi
 1576 0932 DC01      		movw r26,r24
 1577 0934 CB01      		movw r24,r22
 1578 0936 00D0      		rcall Display10
 1579               	.L110:
 1580               	.LM192:
 1581 0938 8091 0000 		lds r24,TimerOver
 1582 093c 8823      		tst r24
 1583 093e 01F0      		breq .L114
 1584               	.LM193:
 1585 0940 6091 0000 		lds r22,LL_value
 1586 0944 7091 0000 		lds r23,(LL_value)+1
 1587 0948 8091 0000 		lds r24,(LL_value)+2
 1588 094c 9091 0000 		lds r25,(LL_value)+3
 1589 0950 00D0      		rcall ceil
 1590               	.LM194:
 1591 0952 00D0      		rcall __fixsfsi
 1592 0954 DC01      		movw r26,r24
 1593 0956 CB01      		movw r24,r22
 1594 0958 00D0      		rcall Display10
 1595               	.LM195:
 1596 095a 00D0      		rcall ChangeADCResult_LL
 1597 095c 6093 0000 		sts LL_value,r22
 1598 0960 7093 0000 		sts (LL_value)+1,r23
 1599 0964 8093 0000 		sts (LL_value)+2,r24
 1600 0968 9093 0000 		sts (LL_value)+3,r25
 1601               	.LM196:
 1602 096c 1092 0000 		sts TimerOver,__zero_reg__
 1603               	.LM197:
 1604 0970 88EE      		ldi r24,lo8(1000)
 1605 0972 93E0      		ldi r25,hi8(1000)
 1606 0974 00D0      		rcall TimerDelayMs
 1607               	.LM198:
 1608 0976 82B3      		in r24,50-32
 1609 0978 8058      		subi r24,lo8(-(-128))
 1610 097a 82BB      		out 50-32,r24
 1611               	.LM199:
 1612 097c 8091 0000 		lds r24,ErrFlag
 1613 0980 9091 0000 		lds r25,(ErrFlag)+1
 1614 0984 892B      		or r24,r25
 1615 0986 01F0      		breq .L114
 1616               	.LM200:
 1617 0988 8091 0000 		lds r24,ErrFlag
 1618 098c 9091 0000 		lds r25,(ErrFlag)+1
 1619 0990 0196      		adiw r24,1
 1620 0992 9093 0000 		sts (ErrFlag)+1,r25
 1621 0996 8093 0000 		sts ErrFlag,r24
 1622               	.L114:
 1623               	/* epilogue start */
 1624               	.LM201:
 1625 099a 1F91      		pop r17
 1626 099c 0F91      		pop r16
 1627 099e FF90      		pop r15
 1628 09a0 EF90      		pop r14
 1629 09a2 DF90      		pop r13
 1630 09a4 CF90      		pop r12
 1631 09a6 BF90      		pop r11
 1632 09a8 AF90      		pop r10
 1633               	.LVL79:
 1634 09aa 0895      		ret
 1635               	.LFE26:
 1637               	.global	ADCInit
 1639               	ADCInit:
 1640               	.LFB22:
 1641               	.LM202:
 1642               	/* prologue: function */
 1643               	/* frame size = 0 */
 1644               	.LM203:
 1645 09ac 00D0      		rcall Init_ADS1110
 1646               	/* epilogue start */
 1647               	.LM204:
 1648 09ae 0895      		ret
 1649               	.LFE22:
 1651               	.global	WRITE_BYTE_EEP
 1653               	WRITE_BYTE_EEP:
 1654               	.LFB13:
 1655               	.LM205:
 1656               	.LVL80:
 1657               	/* prologue: function */
 1658               	/* frame size = 0 */
 1659 09b0 282F      		mov r18,r24
 1660               	.LVL81:
 1661               	.L125:
 1662               	.LM206:
 1663 09b2 E199      		sbic 60-32,1
 1664 09b4 00C0      		rjmp .L125
 1665 09b6 CB01      		movw r24,r22
 1666 09b8 622F      		mov r22,r18
 1667               	.LVL82:
 1668 09ba 00D0      		rcall __eewr_byte_m8
 1669               	.LVL83:
 1670               	/* epilogue start */
 1671 09bc 0895      		ret
 1672               	.LFE13:
 1674               	.global	READ_BYTE_EEP
 1676               	READ_BYTE_EEP:
 1677               	.LFB12:
 1678               	.LM207:
 1679               	/* prologue: function */
 1680               	/* frame size = 0 */
 1681               	.LVL84:
 1682               	.L129:
 1683               	.LM208:
 1684 09be E199      		sbic 60-32,1
 1685 09c0 00C0      		rjmp .L129
 1686 09c2 00D0      		rcall __eerd_byte_m8
 1687               	.LVL85:
 1688               	/* epilogue start */
 1689 09c4 0895      		ret
 1690               	.LFE12:
 1692               	.global	WRITE_WORD_EEP
 1694               	WRITE_WORD_EEP:
 1695               	.LFB11:
 1696               	.LM209:
 1697               	.LVL86:
 1698               	/* prologue: function */
 1699               	/* frame size = 0 */
 1700 09c6 9C01      		movw r18,r24
 1701               	.LVL87:
 1702               	.L133:
 1703               	.LM210:
 1704 09c8 E199      		sbic 60-32,1
 1705 09ca 00C0      		rjmp .L133
 1706 09cc CB01      		movw r24,r22
 1707 09ce B901      		movw r22,r18
 1708               	.LVL88:
 1709 09d0 00D0      		rcall __eewr_word_m8
 1710               	.LVL89:
 1711               	/* epilogue start */
 1712 09d2 0895      		ret
 1713               	.LFE11:
 1715               	.global	READ_WORD_EEP
 1717               	READ_WORD_EEP:
 1718               	.LFB10:
 1719               	.LM211:
 1720               	/* prologue: function */
 1721               	/* frame size = 0 */
 1722               	.LVL90:
 1723               	.L137:
 1724               	.LM212:
 1725 09d4 E199      		sbic 60-32,1
 1726 09d6 00C0      		rjmp .L137
 1727 09d8 00D0      		rcall __eerd_word_m8
 1728               	.LVL91:
 1729               	/* epilogue start */
 1730 09da 0895      		ret
 1731               	.LFE10:
 1733               	.global	LoadEEPROM
 1735               	LoadEEPROM:
 1736               	.LFB33:
 1737               	.LM213:
 1738 09dc AF92      		push r10
 1739 09de BF92      		push r11
 1740 09e0 CF92      		push r12
 1741 09e2 DF92      		push r13
 1742 09e4 EF92      		push r14
 1743 09e6 FF92      		push r15
 1744 09e8 0F93      		push r16
 1745 09ea 1F93      		push r17
 1746               	/* prologue: function */
 1747               	/* frame size = 0 */
 1748               	.LM214:
 1749 09ec 80E0      		ldi r24,lo8(MEASURE_MODE_EEP)
 1750 09ee 90E0      		ldi r25,hi8(MEASURE_MODE_EEP)
 1751 09f0 00D0      		rcall READ_BYTE_EEP
 1752 09f2 8093 0000 		sts MEASURE_MODE,r24
 1753               	.LM215:
 1754 09f6 00E0      		ldi r16,lo8(I_MAX_EEP)
 1755 09f8 10E0      		ldi r17,hi8(I_MAX_EEP)
 1756 09fa 1093 0000 		sts (pMAX_EEP)+1,r17
 1757 09fe 0093 0000 		sts pMAX_EEP,r16
 1758               	.LM216:
 1759 0a02 20E0      		ldi r18,lo8(I_MIN_EEP)
 1760 0a04 E22E      		mov r14,r18
 1761 0a06 20E0      		ldi r18,hi8(I_MIN_EEP)
 1762 0a08 F22E      		mov r15,r18
 1763 0a0a F092 0000 		sts (pMIN_EEP)+1,r15
 1764 0a0e E092 0000 		sts pMIN_EEP,r14
 1765               	.LM217:
 1766 0a12 90E0      		ldi r25,lo8(I_XSD_EEP)
 1767 0a14 C92E      		mov r12,r25
 1768 0a16 90E0      		ldi r25,hi8(I_XSD_EEP)
 1769 0a18 D92E      		mov r13,r25
 1770 0a1a D092 0000 		sts (pXSD_EEP)+1,r13
 1771 0a1e C092 0000 		sts pXSD_EEP,r12
 1772               	.LM218:
 1773 0a22 80E0      		ldi r24,lo8(I_ZERO_EEP)
 1774 0a24 A82E      		mov r10,r24
 1775 0a26 80E0      		ldi r24,hi8(I_ZERO_EEP)
 1776 0a28 B82E      		mov r11,r24
 1777 0a2a B092 0000 		sts (pADJ_ZERO)+1,r11
 1778 0a2e A092 0000 		sts pADJ_ZERO,r10
 1779               	.LM219:
 1780 0a32 80E0      		ldi r24,lo8(ADDR_EEP)
 1781 0a34 90E0      		ldi r25,hi8(ADDR_EEP)
 1782 0a36 00D0      		rcall READ_BYTE_EEP
 1783 0a38 8093 0000 		sts DeviceAddr,r24
 1784               	.LM220:
 1785 0a3c C801      		movw r24,r16
 1786 0a3e 00D0      		rcall READ_WORD_EEP
 1787 0a40 9093 0000 		sts (VALUE_MAX)+1,r25
 1788 0a44 8093 0000 		sts VALUE_MAX,r24
 1789               	.LM221:
 1790 0a48 C701      		movw r24,r14
 1791 0a4a 00D0      		rcall READ_WORD_EEP
 1792 0a4c 9093 0000 		sts (VALUE_MIN)+1,r25
 1793 0a50 8093 0000 		sts VALUE_MIN,r24
 1794               	.LM222:
 1795 0a54 C601      		movw r24,r12
 1796 0a56 00D0      		rcall READ_BYTE_EEP
 1797 0a58 8093 0000 		sts XiaoShuDian,r24
 1798               	.LM223:
 1799 0a5c C501      		movw r24,r10
 1800 0a5e 00D0      		rcall READ_WORD_EEP
 1801 0a60 9093 0000 		sts (ADJ_ZERO)+1,r25
 1802 0a64 8093 0000 		sts ADJ_ZERO,r24
 1803               	/* epilogue start */
 1804               	.LM224:
 1805 0a68 1F91      		pop r17
 1806 0a6a 0F91      		pop r16
 1807 0a6c FF90      		pop r15
 1808 0a6e EF90      		pop r14
 1809 0a70 DF90      		pop r13
 1810 0a72 CF90      		pop r12
 1811 0a74 BF90      		pop r11
 1812 0a76 AF90      		pop r10
 1813 0a78 0895      		ret
 1814               	.LFE33:
 1816               	.global	SystemInit
 1818               	SystemInit:
 1819               	.LFB34:
 1820               	.LM225:
 1821               	/* prologue: function */
 1822               	/* frame size = 0 */
 1823               	.LM226:
 1824 0a7a 8FE0      		ldi r24,lo8(15)
 1825 0a7c 84BB      		out 52-32,r24
 1826               	.LM227:
 1827 0a7e 87E0      		ldi r24,lo8(7)
 1828 0a80 87BB      		out 55-32,r24
 1829               	.LM228:
 1830 0a82 8EEF      		ldi r24,lo8(-2)
 1831 0a84 81BB      		out 49-32,r24
 1832               	.LM229:
 1833 0a86 00D0      		rcall LoadEEPROM
 1834               	.LM230:
 1835               	/* #APP */
 1836               	 ;  639 "main.c" 1
 1837 0a88 7894      		sei
 1838               	 ;  0 "" 2
 1839               	.LM231:
 1840               	/* #NOAPP */
 1841 0a8a 00D0      		rcall OpenDisplayLED
 1842               	.LM232:
 1843 0a8c 9298      		cbi 50-32,2
 1844               	.LM233:
 1845 0a8e 80E8      		ldi r24,lo8(9600)
 1846 0a90 95E2      		ldi r25,hi8(9600)
 1847 0a92 00D0      		rcall USART_Init
 1848               	.LM234:
 1849 0a94 85E0      		ldi r24,lo8(5)
 1850 0a96 85BD      		out 69-32,r24
 1851               	.LBB62:
 1852               	.LBB63:
 1853               	.LM235:
 1854 0a98 00D0      		rcall Init_ADS1110
 1855               	.LBE63:
 1856               	.LBE62:
 1857               	.LM236:
 1858 0a9a 2EE0      		ldi r18,lo8(14)
 1859 0a9c 88E1      		ldi r24,lo8(24)
 1860 0a9e 90E0      		ldi r25,hi8(24)
 1861               	/* #APP */
 1862               	 ;  652 "main.c" 1
 1863 0aa0 0FB6      		in __tmp_reg__,__SREG__
 1864 0aa2 F894      		cli
 1865 0aa4 A895      		wdr
 1866 0aa6 81BD      		out 33,r24
 1867 0aa8 0FBE      		out __SREG__,__tmp_reg__
 1868 0aaa 21BD      		out 33,r18
 1869               	 ;  0 "" 2
 1870               	.LM237:
 1871               	/* #NOAPP */
 1872 0aac 1092 0000 		sts TimerOver,__zero_reg__
 1873               	.LM238:
 1874 0ab0 88EE      		ldi r24,lo8(1000)
 1875 0ab2 93E0      		ldi r25,hi8(1000)
 1876 0ab4 00D0      		rcall TimerDelayMs
 1877               	/* epilogue start */
 1878               	.LM239:
 1879 0ab6 0895      		ret
 1880               	.LFE34:
 1882               	.global	main
 1884               	main:
 1885               	.LFB35:
 1886               	.LM240:
 1887 0ab8 2F92      		push r2
 1888 0aba 3F92      		push r3
 1889 0abc 4F92      		push r4
 1890 0abe 5F92      		push r5
 1891 0ac0 6F92      		push r6
 1892 0ac2 7F92      		push r7
 1893 0ac4 8F92      		push r8
 1894 0ac6 9F92      		push r9
 1895 0ac8 AF92      		push r10
 1896 0aca BF92      		push r11
 1897 0acc CF92      		push r12
 1898 0ace DF92      		push r13
 1899 0ad0 EF92      		push r14
 1900 0ad2 FF92      		push r15
 1901 0ad4 0F93      		push r16
 1902 0ad6 1F93      		push r17
 1903 0ad8 DF93      		push r29
 1904 0ada CF93      		push r28
 1905 0adc CDB7      		in r28,__SP_L__
 1906 0ade DEB7      		in r29,__SP_H__
 1907 0ae0 2B97      		sbiw r28,11
 1908 0ae2 0FB6      		in __tmp_reg__,__SREG__
 1909 0ae4 F894      		cli
 1910 0ae6 DEBF      		out __SP_H__,r29
 1911 0ae8 0FBE      		out __SREG__,__tmp_reg__
 1912 0aea CDBF      		out __SP_L__,r28
 1913               	/* prologue: function */
 1914               	/* frame size = 11 */
 1915               	.LM241:
 1916 0aec 1092 0000 		sts RxFrameComplete,__zero_reg__
 1917               	.LM242:
 1918 0af0 1092 0000 		sts RxMode,__zero_reg__
 1919               	.LM243:
 1920 0af4 1092 0000 		sts (ErrFlag)+1,__zero_reg__
 1921 0af8 1092 0000 		sts ErrFlag,__zero_reg__
 1922               	.LM244:
 1923 0afc 00D0      		rcall SystemInit
 1924               	.LM245:
 1925 0afe 1092 0000 		sts ID,__zero_reg__
 1926 0b02 1092 0000 		sts (ID)+1,__zero_reg__
 1927 0b06 1092 0000 		sts (ID)+2,__zero_reg__
 1928 0b0a 1092 0000 		sts (ID)+3,__zero_reg__
 1929               	.LM246:
 1930 0b0e 80E0      		ldi r24,lo8(ID0_EEP)
 1931 0b10 90E0      		ldi r25,hi8(ID0_EEP)
 1932 0b12 00D0      		rcall READ_WORD_EEP
 1933               	.LM247:
 1934 0b14 7C01      		movw r14,r24
 1935 0b16 00E0      		ldi r16,lo8(0)
 1936 0b18 10E0      		ldi r17,hi8(0)
 1937 0b1a 8701      		movw r16,r14
 1938 0b1c FF24      		clr r15
 1939 0b1e EE24      		clr r14
 1940 0b20 E092 0000 		sts ID,r14
 1941 0b24 F092 0000 		sts (ID)+1,r15
 1942 0b28 0093 0000 		sts (ID)+2,r16
 1943 0b2c 1093 0000 		sts (ID)+3,r17
 1944               	.LM248:
 1945 0b30 80E0      		ldi r24,lo8(ID1_EEP)
 1946 0b32 90E0      		ldi r25,hi8(ID1_EEP)
 1947 0b34 00D0      		rcall READ_WORD_EEP
 1948 0b36 A0E0      		ldi r26,lo8(0)
 1949 0b38 B0E0      		ldi r27,hi8(0)
 1950 0b3a E80E      		add r14,r24
 1951 0b3c F91E      		adc r15,r25
 1952 0b3e 0A1F      		adc r16,r26
 1953 0b40 1B1F      		adc r17,r27
 1954 0b42 E092 0000 		sts ID,r14
 1955 0b46 F092 0000 		sts (ID)+1,r15
 1956 0b4a 0093 0000 		sts (ID)+2,r16
 1957 0b4e 1093 0000 		sts (ID)+3,r17
 1958               	.LM249:
 1959 0b52 8091 0000 		lds r24,MEASURE_MODE
 1960 0b56 90E0      		ldi r25,lo8(0)
 1961 0b58 8050      		subi r24,lo8(-(-12288))
 1962 0b5a 9043      		sbci r25,hi8(-(-12288))
 1963 0b5c 9093 0000 		sts (ErrCodeDisplay)+1,r25
 1964 0b60 8093 0000 		sts ErrCodeDisplay,r24
 1965               	.LM250:
 1966 0b64 8091 0000 		lds r24,ErrCodeDisplay
 1967 0b68 9091 0000 		lds r25,(ErrCodeDisplay)+1
 1968 0b6c 00D0      		rcall DisplayHex
 1969 0b6e 20E0      		ldi r18,lo8(0)
 1970 0b70 30E0      		ldi r19,hi8(0)
 1971               	.LVL92:
 1972               	.LBB64:
 1973               	.LBB65:
 1974               	.LBB66:
 1975               	.LBB67:
 1976               	.LM251:
 1977 0b72 48EC      		ldi r20,lo8(200)
 1978 0b74 50E0      		ldi r21,hi8(200)
 1979 0b76 00C0      		rjmp .L145
 1980               	.LVL93:
 1981               	.L146:
 1982 0b78 FA01      		movw r30,r20
 1983               	/* #APP */
 1984               	 ;  105 "d:/program files/winavr-20100110/lib/gcc/../../avr/include/util/delay_basic.h" 1
 1985 0b7a 3197      		1: sbiw r30,1
 1986 0b7c 01F4      		brne 1b
 1987               	 ;  0 "" 2
 1988               	/* #NOAPP */
 1989               	.LBE67:
 1990               	.LBE66:
 1991               	.LM252:
 1992 0b7e 0197      		sbiw r24,1
 1993               	.LM253:
 1994 0b80 01F4      		brne .L146
 1995               	.LBE65:
 1996               	.LBE64:
 1997               	.LM254:
 1998               	/* #APP */
 1999               	 ;  690 "main.c" 1
 2000 0b82 A895      		wdr
 2001               	 ;  0 "" 2
 2002               	.LM255:
 2003               	/* #NOAPP */
 2004 0b84 2F5F      		subi r18,lo8(-(1))
 2005 0b86 3F4F      		sbci r19,hi8(-(1))
 2006 0b88 2A30      		cpi r18,10
 2007 0b8a 3105      		cpc r19,__zero_reg__
 2008 0b8c 01F4      		brne .L145
 2009 0b8e 5524      		clr r5
 2010 0b90 5394      		inc r5
 2011               	.LVL94:
 2012               	.LM256:
 2013 0b92 4E01      		movw r8,r28
 2014 0b94 0894      		sec
 2015 0b96 811C      		adc r8,__zero_reg__
 2016 0b98 911C      		adc r9,__zero_reg__
 2017               	.LM257:
 2018 0b9a 40E4      		ldi r20,lo8(64)
 2019 0b9c 442E      		mov r4,r20
 2020               	.LBB68:
 2021               	.LBB69:
 2022               	.LM258:
 2023 0b9e 32E0      		ldi r19,lo8(-8190)
 2024 0ba0 232E      		mov r2,r19
 2025 0ba2 30EE      		ldi r19,hi8(-8190)
 2026 0ba4 332E      		mov r3,r19
 2027 0ba6 00C0      		rjmp .L196
 2028               	.LVL95:
 2029               	.L145:
 2030               	.LBE69:
 2031               	.LBE68:
 2032               	.LM259:
 2033 0ba8 80ED      		ldi r24,lo8(2000)
 2034 0baa 97E0      		ldi r25,hi8(2000)
 2035 0bac 00C0      		rjmp .L146
 2036               	.LVL96:
 2037               	.L196:
 2038               	.LM260:
 2039 0bae 8091 0000 		lds r24,RxFrameComplete
 2040               	.LVL97:
 2041 0bb2 8823      		tst r24
 2042 0bb4 01F4      		brne .L148
 2043               	.LM261:
 2044 0bb6 8091 0000 		lds r24,MEASURE_MODE
 2045 0bba 8330      		cpi r24,lo8(3)
 2046 0bbc 01F4      		brne .L149
 2047               	.LM262:
 2048 0bbe 00D0      		rcall RefreshLED_LL
 2049               	.LVL98:
 2050 0bc0 00C0      		rjmp .L150
 2051               	.LVL99:
 2052               	.L149:
 2053               	.LM263:
 2054 0bc2 00D0      		rcall RefreshLED
 2055               	.LVL100:
 2056               	.L150:
 2057               	.LM264:
 2058 0bc4 00D0      		rcall IsErrorOrNot
 2059               	.LM265:
 2060               	/* #APP */
 2061               	 ;  703 "main.c" 1
 2062 0bc6 A895      		wdr
 2063               	 ;  0 "" 2
 2064               	/* #NOAPP */
 2065 0bc8 00C0      		rjmp .L196
 2066               	.LVL101:
 2067               	.L148:
 2068               	.LM266:
 2069 0bca 1092 0000 		sts RxFrameComplete,__zero_reg__
 2070               	.LM267:
 2071 0bce 9091 0000 		lds r25,RxFrame
 2072               	.LVL102:
 2073 0bd2 8091 0000 		lds r24,DeviceAddr
 2074 0bd6 9817      		cp r25,r24
 2075 0bd8 01F4      		brne .+2
 2076 0bda 00C0      		rjmp .L151
 2077               	.LM268:
 2078 0bdc 8091 0000 		lds r24,RxFrame
 2079 0be0 8E3F      		cpi r24,lo8(-2)
 2080 0be2 01F4      		brne .L196
 2081               	.LM269:
 2082 0be4 8091 0000 		lds r24,RxFrame+1
 2083 0be8 8838      		cpi r24,lo8(-120)
 2084 0bea 01F4      		brne .L151
 2085 0bec 5520      		tst r5
 2086 0bee 01F0      		breq .L151
 2087               	.LM270:
 2088 0bf0 E091 0000 		lds r30,RxFrame+2
 2089 0bf4 F091 0000 		lds r31,(RxFrame+2)+1
 2090               	.LVL103:
 2091 0bf8 8081      		ld r24,Z
 2092 0bfa 8234      		cpi r24,lo8(66)
 2093 0bfc 01F4      		brne .L196
 2094 0bfe E091 0000 		lds r30,RxFrame+2
 2095 0c02 F091 0000 		lds r31,(RxFrame+2)+1
 2096 0c06 8181      		ldd r24,Z+1
 2097 0c08 8F36      		cpi r24,lo8(111)
 2098 0c0a 01F4      		brne .L196
 2099 0c0c E091 0000 		lds r30,RxFrame+2
 2100 0c10 F091 0000 		lds r31,(RxFrame+2)+1
 2101 0c14 8281      		ldd r24,Z+2
 2102 0c16 8337      		cpi r24,lo8(115)
 2103 0c18 01F4      		brne .L196
 2104 0c1a E091 0000 		lds r30,RxFrame+2
 2105 0c1e F091 0000 		lds r31,(RxFrame+2)+1
 2106 0c22 8381      		ldd r24,Z+3
 2107 0c24 8337      		cpi r24,lo8(115)
 2108 0c26 01F4      		brne .L196
 2109 0c28 E091 0000 		lds r30,RxFrame+2
 2110 0c2c F091 0000 		lds r31,(RxFrame+2)+1
 2111 0c30 8481      		ldd r24,Z+4
 2112 0c32 8537      		cpi r24,lo8(117)
 2113 0c34 01F0      		breq .+2
 2114 0c36 00C0      		rjmp .L196
 2115 0c38 E091 0000 		lds r30,RxFrame+2
 2116 0c3c F091 0000 		lds r31,(RxFrame+2)+1
 2117 0c40 8581      		ldd r24,Z+5
 2118 0c42 8E34      		cpi r24,lo8(78)
 2119 0c44 01F0      		breq .+2
 2120 0c46 00C0      		rjmp .L196
 2121               	.LM271:
 2122 0c48 8091 0000 		lds r24,ID+3
 2123 0c4c 8983      		std Y+1,r24
 2124               	.LM272:
 2125 0c4e 8091 0000 		lds r24,ID+2
 2126 0c52 8A83      		std Y+2,r24
 2127               	.LM273:
 2128 0c54 8091 0000 		lds r24,ID+1
 2129 0c58 8B83      		std Y+3,r24
 2130               	.LM274:
 2131 0c5a 8091 0000 		lds r24,ID
 2132 0c5e 8C83      		std Y+4,r24
 2133               	.LM275:
 2134 0c60 88E7      		ldi r24,lo8(120)
 2135 0c62 00C0      		rjmp .L202
 2136               	.LVL104:
 2137               	.L151:
 2138               	.LM276:
 2139 0c64 2091 0000 		lds r18,RxFrame
 2140               	.LVL105:
 2141 0c68 3091 0000 		lds r19,RxFrame+1
 2142 0c6c 4091 0000 		lds r20,RxFrame+2
 2143 0c70 5091 0000 		lds r21,RxFrame+3
 2144 0c74 6091 0000 		lds r22,RxFrame+4
 2145 0c78 7091 0000 		lds r23,RxFrame+5
 2146 0c7c 8091 0000 		lds r24,RxFrame+6
 2147 0c80 9091 0000 		lds r25,RxFrame+7
 2148 0c84 00D0      		rcall FrameCRC16IsOK
 2149               	.LVL106:
 2150 0c86 8823      		tst r24
 2151 0c88 01F0      		breq .L152
 2152 0c8a 1B86      		std Y+11,__zero_reg__
 2153               	.LVL107:
 2154 0c8c 00C0      		rjmp .L153
 2155               	.L152:
 2156               	.LBB71:
 2157               	.LBB70:
 2158               	.LM277:
 2159 0c8e 81E0      		ldi r24,lo8(1)
 2160 0c90 90E0      		ldi r25,hi8(1)
 2161 0c92 9093 0000 		sts (ErrFlag)+1,r25
 2162 0c96 8093 0000 		sts ErrFlag,r24
 2163               	.LM278:
 2164 0c9a 3092 0000 		sts (ErrCodeDisplay)+1,r3
 2165 0c9e 2092 0000 		sts ErrCodeDisplay,r2
 2166 0ca2 20E8      		ldi r18,lo8(-128)
 2167 0ca4 2B87      		std Y+11,r18
 2168               	.LVL108:
 2169               	.L153:
 2170               	.LBE70:
 2171               	.LBE71:
 2172               	.LM279:
 2173 0ca6 E091 0000 		lds r30,RxFrame+2
 2174 0caa F091 0000 		lds r31,(RxFrame+2)+1
 2175               	.LM280:
 2176 0cae 7080      		ld r7,Z
 2177               	.LVL109:
 2178 0cb0 6624      		clr r6
 2179               	.LVL110:
 2180               	.LM281:
 2181 0cb2 E091 0000 		lds r30,RxFrame+2
 2182 0cb6 F091 0000 		lds r31,(RxFrame+2)+1
 2183 0cba 8181      		ldd r24,Z+1
 2184 0cbc 90E0      		ldi r25,lo8(0)
 2185               	.LVL111:
 2186 0cbe 8629      		or r24,r6
 2187 0cc0 9729      		or r25,r7
 2188               	.LVL112:
 2189               	.LM282:
 2190 0cc2 2091 0000 		lds r18,RxFrame+1
 2191 0cc6 2630      		cpi r18,lo8(6)
 2192 0cc8 01F4      		brne .+2
 2193 0cca 00C0      		rjmp .L157
 2194 0ccc 2730      		cpi r18,lo8(7)
 2195 0cce 00F4      		brsh .L161
 2196 0cd0 2330      		cpi r18,lo8(3)
 2197 0cd2 01F4      		brne .+2
 2198 0cd4 00C0      		rjmp .L155
 2199 0cd6 2430      		cpi r18,lo8(4)
 2200 0cd8 01F0      		breq .+2
 2201 0cda 00C0      		rjmp .L154
 2202 0cdc 00C0      		rjmp .L207
 2203               	.L161:
 2204 0cde 2536      		cpi r18,lo8(101)
 2205 0ce0 01F4      		brne .+2
 2206 0ce2 00C0      		rjmp .L159
 2207 0ce4 2636      		cpi r18,lo8(102)
 2208 0ce6 01F4      		brne .+2
 2209 0ce8 00C0      		rjmp .L160
 2210 0cea 2436      		cpi r18,lo8(100)
 2211 0cec 01F0      		breq .+2
 2212 0cee 00C0      		rjmp .L154
 2213               	.LM283:
 2214 0cf0 6091 0000 		lds r22,RxFrame+2
 2215 0cf4 7091 0000 		lds r23,(RxFrame+2)+1
 2216 0cf8 4091 0000 		lds r20,RxFrame+4
 2217 0cfc 5091 0000 		lds r21,(RxFrame+4)+1
 2218 0d00 4250      		subi r20,lo8(-(-2))
 2219 0d02 5040      		sbci r21,hi8(-(-2))
 2220 0d04 84E6      		ldi r24,lo8(100)
 2221               	.LVL113:
 2222 0d06 00C0      		rjmp .L198
 2223               	.LVL114:
 2224               	.L207:
 2225               	.LM284:
 2226 0d08 8052      		subi r24,lo8(4128)
 2227 0d0a 9041      		sbci r25,hi8(4128)
 2228 0d0c 01F0      		breq .+2
 2229 0d0e 00C0      		rjmp .L197
 2230               	.LM285:
 2231 0d10 8091 0000 		lds r24,MEASURE_MODE
 2232               	.LVL115:
 2233 0d14 8330      		cpi r24,lo8(3)
 2234 0d16 01F4      		brne .L164
 2235               	.LM286:
 2236 0d18 8091 0000 		lds r24,LL_value
 2237 0d1c 9091 0000 		lds r25,(LL_value)+1
 2238 0d20 A091 0000 		lds r26,(LL_value)+2
 2239 0d24 B091 0000 		lds r27,(LL_value)+3
 2240 0d28 8093 0000 		sts V_DATA,r24
 2241 0d2c 9093 0000 		sts (V_DATA)+1,r25
 2242 0d30 A093 0000 		sts (V_DATA)+2,r26
 2243 0d34 B093 0000 		sts (V_DATA)+3,r27
 2244 0d38 00C0      		rjmp .L165
 2245               	.L164:
 2246               	.LM287:
 2247 0d3a 6091 0000 		lds r22,T_C
 2248 0d3e 7091 0000 		lds r23,(T_C)+1
 2249 0d42 80E0      		ldi r24,lo8(0)
 2250 0d44 90E0      		ldi r25,hi8(0)
 2251 0d46 00D0      		rcall __floatunsisf
 2252               	.LVL116:
 2253 0d48 6093 0000 		sts V_DATA,r22
 2254 0d4c 7093 0000 		sts (V_DATA)+1,r23
 2255 0d50 8093 0000 		sts (V_DATA)+2,r24
 2256 0d54 9093 0000 		sts (V_DATA)+3,r25
 2257               	.LVL117:
 2258               	.L165:
 2259               	.LM288:
 2260 0d58 8091 0000 		lds r24,XiaoShuDian
 2261 0d5c 8330      		cpi r24,lo8(3)
 2262 0d5e 01F0      		breq .L168
 2263 0d60 8430      		cpi r24,lo8(4)
 2264 0d62 01F0      		breq .L169
 2265 0d64 8230      		cpi r24,lo8(2)
 2266 0d66 01F4      		brne .L166
 2267               	.LM289:
 2268 0d68 6091 0000 		lds r22,V_DATA
 2269 0d6c 7091 0000 		lds r23,(V_DATA)+1
 2270 0d70 8091 0000 		lds r24,(V_DATA)+2
 2271 0d74 9091 0000 		lds r25,(V_DATA)+3
 2272 0d78 20E0      		ldi r18,lo8(0x41200000)
 2273 0d7a 30E0      		ldi r19,hi8(0x41200000)
 2274 0d7c 40E2      		ldi r20,hlo8(0x41200000)
 2275 0d7e 51E4      		ldi r21,hhi8(0x41200000)
 2276 0d80 00C0      		rjmp .L201
 2277               	.L168:
 2278               	.LM290:
 2279 0d82 6091 0000 		lds r22,V_DATA
 2280 0d86 7091 0000 		lds r23,(V_DATA)+1
 2281 0d8a 8091 0000 		lds r24,(V_DATA)+2
 2282 0d8e 9091 0000 		lds r25,(V_DATA)+3
 2283 0d92 20E0      		ldi r18,lo8(0x42c80000)
 2284 0d94 30E0      		ldi r19,hi8(0x42c80000)
 2285 0d96 48EC      		ldi r20,hlo8(0x42c80000)
 2286 0d98 52E4      		ldi r21,hhi8(0x42c80000)
 2287 0d9a 00C0      		rjmp .L201
 2288               	.L169:
 2289               	.LM291:
 2290 0d9c 6091 0000 		lds r22,V_DATA
 2291 0da0 7091 0000 		lds r23,(V_DATA)+1
 2292 0da4 8091 0000 		lds r24,(V_DATA)+2
 2293 0da8 9091 0000 		lds r25,(V_DATA)+3
 2294 0dac 20E0      		ldi r18,lo8(0x447a0000)
 2295 0dae 30E0      		ldi r19,hi8(0x447a0000)
 2296 0db0 4AE7      		ldi r20,hlo8(0x447a0000)
 2297 0db2 54E4      		ldi r21,hhi8(0x447a0000)
 2298               	.L201:
 2299 0db4 00D0      		rcall __divsf3
 2300               	.LVL118:
 2301 0db6 6093 0000 		sts V_DATA,r22
 2302 0dba 7093 0000 		sts (V_DATA)+1,r23
 2303 0dbe 8093 0000 		sts (V_DATA)+2,r24
 2304 0dc2 9093 0000 		sts (V_DATA)+3,r25
 2305               	.LVL119:
 2306               	.L166:
 2307               	.LM292:
 2308 0dc6 8091 0000 		lds r24,V_DATA+3
 2309 0dca 8983      		std Y+1,r24
 2310               	.LM293:
 2311 0dcc 8091 0000 		lds r24,V_DATA+2
 2312 0dd0 8A83      		std Y+2,r24
 2313               	.LM294:
 2314 0dd2 8091 0000 		lds r24,V_DATA+1
 2315 0dd6 8B83      		std Y+3,r24
 2316               	.LM295:
 2317 0dd8 8091 0000 		lds r24,V_DATA
 2318 0ddc 8C83      		std Y+4,r24
 2319               	.LM296:
 2320 0dde 8B85      		ldd r24,Y+11
 2321 0de0 8460      		ori r24,lo8(4)
 2322               	.LVL120:
 2323               	.L202:
 2324 0de2 B401      		movw r22,r8
 2325 0de4 44E0      		ldi r20,lo8(4)
 2326 0de6 50E0      		ldi r21,hi8(4)
 2327 0de8 00C0      		rjmp .L198
 2328               	.LVL121:
 2329               	.L197:
 2330               	.LM297:
 2331 0dea 1982      		std Y+1,__zero_reg__
 2332               	.LM298:
 2333 0dec 84E8      		ldi r24,lo8(-124)
 2334               	.LVL122:
 2335 0dee 00C0      		rjmp .L204
 2336               	.LVL123:
 2337               	.L155:
 2338               	.LM299:
 2339 0df0 8332      		cpi r24,35
 2340 0df2 9105      		cpc r25,__zero_reg__
 2341 0df4 01F0      		breq .L172
 2342 0df6 8432      		cpi r24,36
 2343 0df8 9105      		cpc r25,__zero_reg__
 2344 0dfa 00F4      		brsh .L175
 2345 0dfc 8297      		sbiw r24,34
 2346 0dfe 01F4      		brne .L170
 2347 0e00 00C0      		rjmp .L208
 2348               	.L175:
 2349 0e02 8432      		cpi r24,36
 2350 0e04 9105      		cpc r25,__zero_reg__
 2351 0e06 01F0      		breq .L172
 2352 0e08 8597      		sbiw r24,37
 2353 0e0a 01F4      		brne .L170
 2354 0e0c 00C0      		rjmp .L209
 2355               	.L208:
 2356               	.LM300:
 2357 0e0e 1982      		std Y+1,__zero_reg__
 2358               	.LM301:
 2359 0e10 8091 0000 		lds r24,XiaoShuDian
 2360               	.LVL124:
 2361 0e14 00C0      		rjmp .L206
 2362               	.LVL125:
 2363               	.L209:
 2364               	.LM302:
 2365 0e16 1982      		std Y+1,__zero_reg__
 2366               	.LM303:
 2367 0e18 8091 0000 		lds r24,ADJ_ZERO
 2368               	.LVL126:
 2369               	.L206:
 2370 0e1c 8A83      		std Y+2,r24
 2371 0e1e 00C0      		rjmp .L205
 2372               	.LVL127:
 2373               	.L172:
 2374               	.LM304:
 2375 0e20 1982      		std Y+1,__zero_reg__
 2376               	.LM305:
 2377 0e22 1A82      		std Y+2,__zero_reg__
 2378               	.L205:
 2379               	.LM306:
 2380 0e24 8B85      		ldd r24,Y+11
 2381               	.LVL128:
 2382 0e26 8360      		ori r24,lo8(3)
 2383 0e28 00C0      		rjmp .L203
 2384               	.LVL129:
 2385               	.L170:
 2386               	.LM307:
 2387 0e2a 1982      		std Y+1,__zero_reg__
 2388               	.LM308:
 2389 0e2c 83E8      		ldi r24,lo8(-125)
 2390               	.LVL130:
 2391 0e2e 00C0      		rjmp .L204
 2392               	.LVL131:
 2393               	.L157:
 2394               	.LM309:
 2395 0e30 8232      		cpi r24,34
 2396 0e32 9105      		cpc r25,__zero_reg__
 2397 0e34 01F0      		breq .L178
 2398 0e36 8332      		cpi r24,35
 2399 0e38 9105      		cpc r25,__zero_reg__
 2400 0e3a 00F4      		brsh .L181
 2401 0e3c 4097      		sbiw r24,16
 2402 0e3e 01F0      		breq .+2
 2403 0e40 00C0      		rjmp .L176
 2404 0e42 00C0      		rjmp .L210
 2405               	.L181:
 2406 0e44 8532      		cpi r24,37
 2407 0e46 9105      		cpc r25,__zero_reg__
 2408 0e48 01F4      		brne .+2
 2409 0e4a 00C0      		rjmp .L179
 2410 0e4c 8697      		sbiw r24,38
 2411 0e4e 01F0      		breq .+2
 2412 0e50 00C0      		rjmp .L176
 2413 0e52 00C0      		rjmp .L211
 2414               	.L210:
 2415               	.LM310:
 2416 0e54 E091 0000 		lds r30,RxFrame+2
 2417 0e58 F091 0000 		lds r31,(RxFrame+2)+1
 2418 0e5c 8381      		ldd r24,Z+3
 2419               	.LVL132:
 2420 0e5e 8823      		tst r24
 2421 0e60 01F4      		brne .+2
 2422 0e62 00C0      		rjmp .L196
 2423               	.LM311:
 2424 0e64 E091 0000 		lds r30,RxFrame+2
 2425 0e68 F091 0000 		lds r31,(RxFrame+2)+1
 2426 0e6c 1381      		ldd r17,Z+3
 2427               	.LM312:
 2428 0e6e E091 0000 		lds r30,RxFrame+2
 2429 0e72 F091 0000 		lds r31,(RxFrame+2)+1
 2430 0e76 8081      		ld r24,Z
 2431 0e78 8983      		std Y+1,r24
 2432               	.LM313:
 2433 0e7a E091 0000 		lds r30,RxFrame+2
 2434 0e7e F091 0000 		lds r31,(RxFrame+2)+1
 2435 0e82 8181      		ldd r24,Z+1
 2436 0e84 8A83      		std Y+2,r24
 2437               	.LM314:
 2438 0e86 1B82      		std Y+3,__zero_reg__
 2439               	.LM315:
 2440 0e88 1C83      		std Y+4,r17
 2441               	.LM316:
 2442 0e8a 8B85      		ldd r24,Y+11
 2443 0e8c 8660      		ori r24,lo8(6)
 2444 0e8e B401      		movw r22,r8
 2445 0e90 44E0      		ldi r20,lo8(4)
 2446 0e92 50E0      		ldi r21,hi8(4)
 2447 0e94 00D0      		rcall SendDataToPC
 2448               	.LVL133:
 2449               	.LM317:
 2450 0e96 1093 0000 		sts DeviceAddr,r17
 2451               	.LM318:
 2452 0e9a 8091 0000 		lds r24,DeviceAddr
 2453 0e9e 60E0      		ldi r22,lo8(ADDR_EEP)
 2454 0ea0 70E0      		ldi r23,hi8(ADDR_EEP)
 2455 0ea2 00C0      		rjmp .L200
 2456               	.LVL134:
 2457               	.L178:
 2458               	.LM319:
 2459 0ea4 E091 0000 		lds r30,RxFrame+2
 2460 0ea8 F091 0000 		lds r31,(RxFrame+2)+1
 2461 0eac 8381      		ldd r24,Z+3
 2462               	.LVL135:
 2463 0eae 8093 0000 		sts XiaoShuDian,r24
 2464               	.LM320:
 2465 0eb2 E091 0000 		lds r30,RxFrame+2
 2466 0eb6 F091 0000 		lds r31,(RxFrame+2)+1
 2467 0eba 8081      		ld r24,Z
 2468 0ebc 8983      		std Y+1,r24
 2469               	.LM321:
 2470 0ebe E091 0000 		lds r30,RxFrame+2
 2471 0ec2 F091 0000 		lds r31,(RxFrame+2)+1
 2472 0ec6 8181      		ldd r24,Z+1
 2473 0ec8 8A83      		std Y+2,r24
 2474               	.LM322:
 2475 0eca 1B82      		std Y+3,__zero_reg__
 2476               	.LM323:
 2477 0ecc 8091 0000 		lds r24,XiaoShuDian
 2478 0ed0 8C83      		std Y+4,r24
 2479               	.LM324:
 2480 0ed2 8B85      		ldd r24,Y+11
 2481 0ed4 8660      		ori r24,lo8(6)
 2482 0ed6 B401      		movw r22,r8
 2483 0ed8 44E0      		ldi r20,lo8(4)
 2484 0eda 50E0      		ldi r21,hi8(4)
 2485 0edc 00D0      		rcall SendDataToPC
 2486               	.LVL136:
 2487               	.LM325:
 2488 0ede 8091 0000 		lds r24,XiaoShuDian
 2489 0ee2 6091 0000 		lds r22,pXSD_EEP
 2490 0ee6 7091 0000 		lds r23,(pXSD_EEP)+1
 2491               	.L200:
 2492 0eea 00D0      		rcall WRITE_BYTE_EEP
 2493 0eec 00C0      		rjmp .L196
 2494               	.LVL137:
 2495               	.L179:
 2496               	.LM326:
 2497 0eee E091 0000 		lds r30,RxFrame+2
 2498 0ef2 F091 0000 		lds r31,(RxFrame+2)+1
 2499 0ef6 8281      		ldd r24,Z+2
 2500               	.LVL138:
 2501 0ef8 8093 0000 		sts ADJ_ZERO+1,r24
 2502               	.LM327:
 2503 0efc E091 0000 		lds r30,RxFrame+2
 2504 0f00 F091 0000 		lds r31,(RxFrame+2)+1
 2505 0f04 9381      		ldd r25,Z+3
 2506               	.LVL139:
 2507 0f06 9093 0000 		sts ADJ_ZERO,r25
 2508               	.LM328:
 2509 0f0a E091 0000 		lds r30,RxFrame+2
 2510 0f0e F091 0000 		lds r31,(RxFrame+2)+1
 2511 0f12 8081      		ld r24,Z
 2512 0f14 8983      		std Y+1,r24
 2513               	.LM329:
 2514 0f16 E091 0000 		lds r30,RxFrame+2
 2515 0f1a F091 0000 		lds r31,(RxFrame+2)+1
 2516 0f1e 8181      		ldd r24,Z+1
 2517 0f20 8A83      		std Y+2,r24
 2518               	.LM330:
 2519 0f22 8091 0000 		lds r24,ADJ_ZERO+1
 2520 0f26 8B83      		std Y+3,r24
 2521               	.LM331:
 2522 0f28 9C83      		std Y+4,r25
 2523               	.LM332:
 2524 0f2a 8B85      		ldd r24,Y+11
 2525 0f2c 8660      		ori r24,lo8(6)
 2526 0f2e B401      		movw r22,r8
 2527 0f30 44E0      		ldi r20,lo8(4)
 2528 0f32 50E0      		ldi r21,hi8(4)
 2529 0f34 00D0      		rcall SendDataToPC
 2530               	.LM333:
 2531 0f36 6091 0000 		lds r22,pADJ_ZERO
 2532 0f3a 7091 0000 		lds r23,(pADJ_ZERO)+1
 2533 0f3e 8091 0000 		lds r24,ADJ_ZERO
 2534 0f42 9091 0000 		lds r25,(ADJ_ZERO)+1
 2535 0f46 00C0      		rjmp .L199
 2536               	.LVL140:
 2537               	.L211:
 2538               	.LM334:
 2539 0f48 E091 0000 		lds r30,RxFrame+2
 2540 0f4c F091 0000 		lds r31,(RxFrame+2)+1
 2541 0f50 8381      		ldd r24,Z+3
 2542               	.LVL141:
 2543 0f52 8111      		cpse r24,__zero_reg__
 2544 0f54 81E0      		ldi r24,lo8(1)
 2545               	.L182:
 2546 0f56 582E      		mov r5,r24
 2547               	.LM335:
 2548 0f58 E091 0000 		lds r30,RxFrame+2
 2549 0f5c F091 0000 		lds r31,(RxFrame+2)+1
 2550 0f60 8081      		ld r24,Z
 2551 0f62 8983      		std Y+1,r24
 2552               	.LM336:
 2553 0f64 E091 0000 		lds r30,RxFrame+2
 2554 0f68 F091 0000 		lds r31,(RxFrame+2)+1
 2555 0f6c 8181      		ldd r24,Z+1
 2556 0f6e 8A83      		std Y+2,r24
 2557               	.LM337:
 2558 0f70 1B82      		std Y+3,__zero_reg__
 2559               	.LM338:
 2560 0f72 5C82      		std Y+4,r5
 2561               	.LM339:
 2562 0f74 8B85      		ldd r24,Y+11
 2563 0f76 8660      		ori r24,lo8(6)
 2564 0f78 00C0      		rjmp .L202
 2565               	.LVL142:
 2566               	.L176:
 2567               	.LM340:
 2568 0f7a 1982      		std Y+1,__zero_reg__
 2569               	.LM341:
 2570 0f7c 86E8      		ldi r24,lo8(-122)
 2571               	.LVL143:
 2572               	.L204:
 2573 0f7e B401      		movw r22,r8
 2574 0f80 41E0      		ldi r20,lo8(1)
 2575 0f82 50E0      		ldi r21,hi8(1)
 2576 0f84 00C0      		rjmp .L198
 2577               	.LVL144:
 2578               	.L159:
 2579               	.LM342:
 2580 0f86 8651      		subi r24,lo8(4118)
 2581 0f88 9041      		sbci r25,hi8(4118)
 2582 0f8a 01F0      		breq .+2
 2583 0f8c 00C0      		rjmp .L196
 2584               	.LM343:
 2585 0f8e E091 0000 		lds r30,RxFrame+2
 2586 0f92 F091 0000 		lds r31,(RxFrame+2)+1
 2587 0f96 8581      		ldd r24,Z+5
 2588               	.LVL145:
 2589 0f98 8093 0000 		sts V_MAX+3,r24
 2590               	.LM344:
 2591 0f9c E091 0000 		lds r30,RxFrame+2
 2592 0fa0 F091 0000 		lds r31,(RxFrame+2)+1
 2593 0fa4 8681      		ldd r24,Z+6
 2594 0fa6 8093 0000 		sts V_MAX+2,r24
 2595               	.LM345:
 2596 0faa E091 0000 		lds r30,RxFrame+2
 2597 0fae F091 0000 		lds r31,(RxFrame+2)+1
 2598 0fb2 8781      		ldd r24,Z+7
 2599 0fb4 8093 0000 		sts V_MAX+1,r24
 2600               	.LM346:
 2601 0fb8 E091 0000 		lds r30,RxFrame+2
 2602 0fbc F091 0000 		lds r31,(RxFrame+2)+1
 2603 0fc0 8085      		ldd r24,Z+8
 2604 0fc2 8093 0000 		sts V_MAX,r24
 2605               	.LM347:
 2606 0fc6 E091 0000 		lds r30,RxFrame+2
 2607 0fca F091 0000 		lds r31,(RxFrame+2)+1
 2608 0fce 8185      		ldd r24,Z+9
 2609 0fd0 8093 0000 		sts V_MIN+3,r24
 2610               	.LM348:
 2611 0fd4 E091 0000 		lds r30,RxFrame+2
 2612 0fd8 F091 0000 		lds r31,(RxFrame+2)+1
 2613 0fdc 8285      		ldd r24,Z+10
 2614 0fde 8093 0000 		sts V_MIN+2,r24
 2615               	.LM349:
 2616 0fe2 E091 0000 		lds r30,RxFrame+2
 2617 0fe6 F091 0000 		lds r31,(RxFrame+2)+1
 2618 0fea 8385      		ldd r24,Z+11
 2619 0fec 8093 0000 		sts V_MIN+1,r24
 2620               	.LM350:
 2621 0ff0 E091 0000 		lds r30,RxFrame+2
 2622 0ff4 F091 0000 		lds r31,(RxFrame+2)+1
 2623 0ff8 8485      		ldd r24,Z+12
 2624 0ffa 8093 0000 		sts V_MIN,r24
 2625               	.LM351:
 2626 0ffe A090 0000 		lds r10,V_MAX
 2627 1002 B090 0000 		lds r11,(V_MAX)+1
 2628 1006 E090 0000 		lds r14,V_MIN
 2629 100a F090 0000 		lds r15,(V_MIN)+1
 2630 100e C501      		movw r24,r10
 2631 1010 B701      		movw r22,r14
 2632 1012 00D0      		rcall Out_MAX
 2633               	.LVL146:
 2634 1014 7093 0000 		sts (VALUE_MAX)+1,r23
 2635 1018 6093 0000 		sts VALUE_MAX,r22
 2636               	.LM352:
 2637 101c C501      		movw r24,r10
 2638 101e B701      		movw r22,r14
 2639 1020 00D0      		rcall Out_MIN
 2640 1022 7093 0000 		sts (VALUE_MIN)+1,r23
 2641 1026 6093 0000 		sts VALUE_MIN,r22
 2642               	.LM353:
 2643 102a E091 0000 		lds r30,RxFrame+2
 2644 102e F091 0000 		lds r31,(RxFrame+2)+1
 2645 1032 8081      		ld r24,Z
 2646 1034 8983      		std Y+1,r24
 2647               	.LM354:
 2648 1036 E091 0000 		lds r30,RxFrame+2
 2649 103a F091 0000 		lds r31,(RxFrame+2)+1
 2650 103e 8181      		ldd r24,Z+1
 2651 1040 8A83      		std Y+2,r24
 2652               	.LM355:
 2653 1042 88E0      		ldi r24,lo8(8)
 2654 1044 8B83      		std Y+3,r24
 2655               	.LM356:
 2656 1046 8B85      		ldd r24,Y+11
 2657 1048 8566      		ori r24,lo8(101)
 2658 104a B401      		movw r22,r8
 2659 104c 43E0      		ldi r20,lo8(3)
 2660 104e 50E0      		ldi r21,hi8(3)
 2661 1050 00D0      		rcall SendDataToPC
 2662               	.LM357:
 2663 1052 8091 0000 		lds r24,VALUE_MAX
 2664 1056 9091 0000 		lds r25,(VALUE_MAX)+1
 2665 105a 6091 0000 		lds r22,pMAX_EEP
 2666 105e 7091 0000 		lds r23,(pMAX_EEP)+1
 2667 1062 00D0      		rcall WRITE_WORD_EEP
 2668               	.LM358:
 2669 1064 8091 0000 		lds r24,VALUE_MIN
 2670 1068 9091 0000 		lds r25,(VALUE_MIN)+1
 2671 106c 6091 0000 		lds r22,pMIN_EEP
 2672 1070 7091 0000 		lds r23,(pMIN_EEP)+1
 2673 1074 00D0      		rcall WRITE_WORD_EEP
 2674               	.LM359:
 2675 1076 8091 0000 		lds r24,VALUE_MAX
 2676 107a 9091 0000 		lds r25,(VALUE_MAX)+1
 2677 107e 6091 0000 		lds r22,pMAX_EEP
 2678 1082 7091 0000 		lds r23,(pMAX_EEP)+1
 2679 1086 00D0      		rcall WRITE_WORD_EEP
 2680               	.LM360:
 2681 1088 8091 0000 		lds r24,VALUE_MIN
 2682 108c 9091 0000 		lds r25,(VALUE_MIN)+1
 2683 1090 6091 0000 		lds r22,pMIN_EEP
 2684 1094 7091 0000 		lds r23,(pMIN_EEP)+1
 2685               	.L199:
 2686 1098 00D0      		rcall WRITE_WORD_EEP
 2687 109a 00C0      		rjmp .L196
 2688               	.LVL147:
 2689               	.L160:
 2690               	.LM361:
 2691 109c 1982      		std Y+1,__zero_reg__
 2692               	.LM362:
 2693 109e 8231      		cpi r24,18
 2694 10a0 9105      		cpc r25,__zero_reg__
 2695 10a2 01F0      		breq .L186
 2696 10a4 8331      		cpi r24,19
 2697 10a6 9105      		cpc r25,__zero_reg__
 2698 10a8 00F4      		brsh .L189
 2699 10aa 4197      		sbiw r24,17
 2700 10ac 01F4      		brne .L184
 2701 10ae 00C0      		rjmp .L212
 2702               	.L189:
 2703 10b0 8331      		cpi r24,19
 2704 10b2 9105      		cpc r25,__zero_reg__
 2705 10b4 01F0      		breq .L187
 2706 10b6 4497      		sbiw r24,20
 2707 10b8 01F4      		brne .L184
 2708 10ba 00C0      		rjmp .L213
 2709               	.L212:
 2710               	.LM363:
 2711 10bc 98E8      		ldi r25,lo8(-120)
 2712               	.LVL148:
 2713 10be 9A83      		std Y+2,r25
 2714 10c0 00C0      		rjmp .L190
 2715               	.LVL149:
 2716               	.L186:
 2717               	.LM364:
 2718 10c2 20E8      		ldi r18,lo8(-128)
 2719 10c4 2A83      		std Y+2,r18
 2720 10c6 00C0      		rjmp .L190
 2721               	.L187:
 2722               	.LM365:
 2723 10c8 1A82      		std Y+2,__zero_reg__
 2724 10ca 00C0      		rjmp .L190
 2725               	.L213:
 2726               	.LM366:
 2727 10cc 8091 0000 		lds r24,MEASURE_MODE
 2728               	.LVL150:
 2729 10d0 8A83      		std Y+2,r24
 2730 10d2 00C0      		rjmp .L190
 2731               	.LVL151:
 2732               	.L184:
 2733               	.LM367:
 2734 10d4 1982      		std Y+1,__zero_reg__
 2735 10d6 80E8      		ldi r24,lo8(-128)
 2736               	.LVL152:
 2737 10d8 8B87      		std Y+11,r24
 2738               	.LVL153:
 2739               	.L190:
 2740               	.LM368:
 2741 10da 8B85      		ldd r24,Y+11
 2742               	.LVL154:
 2743 10dc 8666      		ori r24,lo8(102)
 2744               	.L203:
 2745 10de B401      		movw r22,r8
 2746 10e0 42E0      		ldi r20,lo8(2)
 2747 10e2 50E0      		ldi r21,hi8(2)
 2748               	.LVL155:
 2749               	.L198:
 2750 10e4 00D0      		rcall SendDataToPC
 2751               	.LVL156:
 2752 10e6 00C0      		rjmp .L196
 2753               	.LVL157:
 2754               	.L154:
 2755               	.LM369:
 2756 10e8 8091 0000 		lds r24,RxFrame+1
 2757               	.LVL158:
 2758 10ec 8068      		ori r24,lo8(-128)
 2759 10ee 8093 0000 		sts RxFrame+1,r24
 2760               	.LM370:
 2761 10f2 8091 0000 		lds r24,RxFrame+1
 2762 10f6 6091 0000 		lds r22,RxFrame+2
 2763 10fa 7091 0000 		lds r23,(RxFrame+2)+1
 2764 10fe 4091 0000 		lds r20,RxFrame+4
 2765 1102 5091 0000 		lds r21,(RxFrame+4)+1
 2766 1106 4250      		subi r20,lo8(-(-2))
 2767 1108 5040      		sbci r21,hi8(-(-2))
 2768 110a 00D0      		rcall SendDataToPC
 2769               	.LVL159:
 2770               	.LBB72:
 2771               	.LBB73:
 2772               	.LM371:
 2773 110c 81E0      		ldi r24,lo8(1)
 2774 110e 90E0      		ldi r25,hi8(1)
 2775 1110 9093 0000 		sts (ErrFlag)+1,r25
 2776 1114 8093 0000 		sts ErrFlag,r24
 2777               	.LM372:
 2778 1118 85E0      		ldi r24,lo8(-8187)
 2779 111a 90EE      		ldi r25,hi8(-8187)
 2780 111c 9093 0000 		sts (ErrCodeDisplay)+1,r25
 2781 1120 8093 0000 		sts ErrCodeDisplay,r24
 2782               	.LBE73:
 2783               	.LBE72:
 2784               	.LM373:
 2785 1124 82B3      		in r24,50-32
 2786 1126 8425      		eor r24,r4
 2787 1128 82BB      		out 50-32,r24
 2788 112a 00C0      		rjmp .L196
 2789               	.LFE35:
 2791               	.global	ADDR_EEP
 2792               		.section	.eeprom,"aw",@progbits
 2795               	ADDR_EEP:
 2796 0000 01        		.byte	1
 2797               	.global	MEASURE_MODE_EEP
 2800               	MEASURE_MODE_EEP:
 2801 0001 00        		.skip 1,0
 2802               	.global	I_MAX_EEP
 2805               	I_MAX_EEP:
 2806 0002 0008      		.word	2048
 2807               	.global	I_MIN_EEP
 2810               	I_MIN_EEP:
 2811 0004 0000      		.skip 2,0
 2812               	.global	I_XSD_EEP
 2815               	I_XSD_EEP:
 2816 0006 03        		.byte	3
 2817               	.global	I_ZERO_EEP
 2820               	I_ZERO_EEP:
 2821 0007 B5FF      		.word	-75
 2822               	.global	T_MAX_EEP
 2825               	T_MAX_EEP:
 2826 0009 3803      		.word	824
 2827               	.global	T_MIN_EEP
 2830               	T_MIN_EEP:
 2831 000b 38FF      		.word	-200
 2832               	.global	T_XSD_EEP
 2835               	T_XSD_EEP:
 2836 000d 02        		.byte	2
 2837               	.global	T_ZERO_EEP
 2840               	T_ZERO_EEP:
 2841 000e B5FF      		.word	-75
 2842               	.global	Y_MAX_EEP
 2845               	Y_MAX_EEP:
 2846 0010 0008      		.word	2048
 2847               	.global	Y_MIN_EEP
 2850               	Y_MIN_EEP:
 2851 0012 0000      		.skip 2,0
 2852               	.global	Y_XSD_EEP
 2855               	Y_XSD_EEP:
 2856 0014 03        		.byte	3
 2857               	.global	Y_ZERO_EEP
 2860               	Y_ZERO_EEP:
 2861 0015 B5FF      		.word	-75
 2862               	.global	L_MAX_EEP
 2865               	L_MAX_EEP:
 2866 0017 0008      		.word	2048
 2867               	.global	L_MIN_EEP
 2870               	L_MIN_EEP:
 2871 0019 0000      		.skip 2,0
 2872               	.global	L_XSD_EEP
 2875               	L_XSD_EEP:
 2876 001b 02        		.byte	2
 2877               	.global	L_ZERO_EEP
 2880               	L_ZERO_EEP:
 2881 001c B5FF      		.word	-75
 2882               	.global	ID0_EEP
 2885               	ID0_EEP:
 2886 001e 3412      		.word	4660
 2887               	.global	ID1_EEP
 2890               	ID1_EEP:
 2891 0020 7856      		.word	22136
 2892               	.global	RxMode
 2893               	.global	RxMode
 2894               		.section .bss
 2897               	RxMode:
 2898 0000 00        		.skip 1,0
 2899               	.global	RxFrameComplete
 2900               	.global	RxFrameComplete
 2903               	RxFrameComplete:
 2904 0001 00        		.skip 1,0
 2905               	.global	WorkMode
 2906               	.global	WorkMode
 2909               	WorkMode:
 2910 0002 00        		.skip 1,0
 2911               	.global	RXDataTemp
 2912               	.global	RXDataTemp
 2915               	RXDataTemp:
 2916 0003 00        		.skip 1,0
 2917               	.global	ADCResult
 2918               	.global	ADCResult
 2921               	ADCResult:
 2922 0004 0000      		.skip 2,0
 2923               	.global	QC_K_h
 2924               		.data
 2927               	QC_K_h:
 2928 0000 89        		.byte	-119
 2929 0001 D2        		.byte	-46
 2930 0002 5E        		.byte	94
 2931 0003 3A        		.byte	58
 2932               	.global	QC_C_e
 2935               	QC_C_e:
 2936 0004 46        		.byte	70
 2937 0005 B6        		.byte	-74
 2938 0006 13        		.byte	19
 2939 0007 3F        		.byte	63
 2940               	.global	QC_C_
 2943               	QC_C_:
 2944 0008 C0        		.byte	-64
 2945 0009 5F        		.byte	95
 2946 000a AE        		.byte	-82
 2947 000b 3F        		.byte	63
 2948               		.lcomm pMAX_EEP,2
 2949               		.lcomm pMIN_EEP,2
 2950               		.lcomm pXSD_EEP,2
 2951               		.lcomm pADJ_ZERO,2
 2952               		.lcomm MEASURE_MODE,1
 2953               		.lcomm ADJ_ZERO,2
 2954               		.lcomm V_MAX,4
 2955               		.lcomm V_MIN,4
 2956               		.lcomm V_DATA,4
 2957               		.lcomm ID,4
 2958               		.comm RxFrame,8,1
 2959               		.comm DeviceAddr,1,1
 2960               		.comm RxArrayTemp,20,1
 2961               		.comm ErrFlag,2,1
 2962               		.comm ErrCodeDisplay,2,1
 2963               		.comm VALUE_MAX,2,1
 2964               		.comm VALUE_MIN,2,1
 2965               		.comm XiaoShuDian,1,1
 2966               		.comm T_C,2,1
 2967               		.comm TimerCycleI,2,1
 2968               		.comm TimerCycleF,2,1
 2969               		.comm TimerOver,1,1
 2970               		.comm ADC_Arrya_Num,2,1
 2971               		.comm ADC_Arrya,128,1
 2972               		.comm LL_value,4,1
 3213               	.Letext0:
DEFINED SYMBOLS
                            *ABS*:00000000 main.c
C:\DOCUME~1\ADMINI~1\LOCALS~1\Temp/cclBUEjR.s:2      *ABS*:0000003f __SREG__
C:\DOCUME~1\ADMINI~1\LOCALS~1\Temp/cclBUEjR.s:3      *ABS*:0000003e __SP_H__
C:\DOCUME~1\ADMINI~1\LOCALS~1\Temp/cclBUEjR.s:4      *ABS*:0000003d __SP_L__
C:\DOCUME~1\ADMINI~1\LOCALS~1\Temp/cclBUEjR.s:5      *ABS*:00000034 __CCP__
C:\DOCUME~1\ADMINI~1\LOCALS~1\Temp/cclBUEjR.s:6      *ABS*:00000000 __tmp_reg__
C:\DOCUME~1\ADMINI~1\LOCALS~1\Temp/cclBUEjR.s:7      *ABS*:00000001 __zero_reg__
C:\DOCUME~1\ADMINI~1\LOCALS~1\Temp/cclBUEjR.s:18     .text:00000000 Out_MAX
C:\DOCUME~1\ADMINI~1\LOCALS~1\Temp/cclBUEjR.s:80     .text:00000050 Out_MIN
C:\DOCUME~1\ADMINI~1\LOCALS~1\Temp/cclBUEjR.s:136    .text:00000096 TimerDelayMs
                            *COM*:00000002 TimerCycleI
                            *COM*:00000002 TimerCycleF
                            *COM*:00000001 TimerOver
C:\DOCUME~1\ADMINI~1\LOCALS~1\Temp/cclBUEjR.s:221    .text:0000011e __vector_8
C:\DOCUME~1\ADMINI~1\LOCALS~1\Temp/cclBUEjR.s:292    .text:00000194 USART_Init
C:\DOCUME~1\ADMINI~1\LOCALS~1\Temp/cclBUEjR.s:339    .text:000001cc USART_Transmit
C:\DOCUME~1\ADMINI~1\LOCALS~1\Temp/cclBUEjR.s:358    .text:000001d4 printk
C:\DOCUME~1\ADMINI~1\LOCALS~1\Temp/cclBUEjR.s:405    .text:000001f6 RxOverrunTimer
C:\DOCUME~1\ADMINI~1\LOCALS~1\Temp/cclBUEjR.s:2903   .bss:00000001 RxFrameComplete
C:\DOCUME~1\ADMINI~1\LOCALS~1\Temp/cclBUEjR.s:430    .text:0000020c __vector_4
C:\DOCUME~1\ADMINI~1\LOCALS~1\Temp/cclBUEjR.s:2897   .bss:00000000 RxMode
                            *COM*:00000008 RxFrame
                            *COM*:00000014 RxArrayTemp
                            *COM*:00000002 ErrFlag
                            *COM*:00000002 ErrCodeDisplay
C:\DOCUME~1\ADMINI~1\LOCALS~1\Temp/cclBUEjR.s:546    .text:000002d2 __vector_11
C:\DOCUME~1\ADMINI~1\LOCALS~1\Temp/cclBUEjR.s:2915   .bss:00000003 RXDataTemp
C:\DOCUME~1\ADMINI~1\LOCALS~1\Temp/cclBUEjR.s:720    .text:00000400 ErrorDisplay
C:\DOCUME~1\ADMINI~1\LOCALS~1\Temp/cclBUEjR.s:744    .text:0000041a IsErrorOrNot
C:\DOCUME~1\ADMINI~1\LOCALS~1\Temp/cclBUEjR.s:770    .text:00000442 FrameCRC16IsOK
C:\DOCUME~1\ADMINI~1\LOCALS~1\Temp/cclBUEjR.s:873    .text:000004d6 SendDataToPC
                            *COM*:00000001 DeviceAddr
C:\DOCUME~1\ADMINI~1\LOCALS~1\Temp/cclBUEjR.s:1050   .text:00000596 ADCOutOne
C:\DOCUME~1\ADMINI~1\LOCALS~1\Temp/cclBUEjR.s:1087   .text:000005c8 ADCOut
                            *COM*:00000002 ADC_Arrya_Num
                            *COM*:00000080 ADC_Arrya
C:\DOCUME~1\ADMINI~1\LOCALS~1\Temp/cclBUEjR.s:1243   .text:000006b6 ChangeADCResult
C:\DOCUME~1\ADMINI~1\LOCALS~1\Temp/cclBUEjR.s:2921   .bss:00000004 ADCResult
C:\DOCUME~1\ADMINI~1\LOCALS~1\Temp/cclBUEjR.s:2952   .bss:0000000f ADJ_ZERO
                            *COM*:00000002 VALUE_MAX
                            *COM*:00000002 VALUE_MIN
C:\DOCUME~1\ADMINI~1\LOCALS~1\Temp/cclBUEjR.s:1312   .text:00000748 RefreshLED
                            *COM*:00000002 T_C
C:\DOCUME~1\ADMINI~1\LOCALS~1\Temp/cclBUEjR.s:1393   .text:000007d4 ChangeADCResult_LL
C:\DOCUME~1\ADMINI~1\LOCALS~1\Temp/cclBUEjR.s:2927   .data:00000000 QC_K_h
C:\DOCUME~1\ADMINI~1\LOCALS~1\Temp/cclBUEjR.s:2943   .data:00000008 QC_C_
C:\DOCUME~1\ADMINI~1\LOCALS~1\Temp/cclBUEjR.s:1514   .text:000008c4 RefreshLED_LL
                            *COM*:00000004 LL_value
C:\DOCUME~1\ADMINI~1\LOCALS~1\Temp/cclBUEjR.s:1639   .text:000009ac ADCInit
C:\DOCUME~1\ADMINI~1\LOCALS~1\Temp/cclBUEjR.s:1653   .text:000009b0 WRITE_BYTE_EEP
C:\DOCUME~1\ADMINI~1\LOCALS~1\Temp/cclBUEjR.s:1676   .text:000009be READ_BYTE_EEP
C:\DOCUME~1\ADMINI~1\LOCALS~1\Temp/cclBUEjR.s:1694   .text:000009c6 WRITE_WORD_EEP
C:\DOCUME~1\ADMINI~1\LOCALS~1\Temp/cclBUEjR.s:1717   .text:000009d4 READ_WORD_EEP
C:\DOCUME~1\ADMINI~1\LOCALS~1\Temp/cclBUEjR.s:1735   .text:000009dc LoadEEPROM
C:\DOCUME~1\ADMINI~1\LOCALS~1\Temp/cclBUEjR.s:2800   .eeprom:00000001 MEASURE_MODE_EEP
C:\DOCUME~1\ADMINI~1\LOCALS~1\Temp/cclBUEjR.s:2951   .bss:0000000e MEASURE_MODE
C:\DOCUME~1\ADMINI~1\LOCALS~1\Temp/cclBUEjR.s:2805   .eeprom:00000002 I_MAX_EEP
                             .bss:00000006 pMAX_EEP
C:\DOCUME~1\ADMINI~1\LOCALS~1\Temp/cclBUEjR.s:2810   .eeprom:00000004 I_MIN_EEP
C:\DOCUME~1\ADMINI~1\LOCALS~1\Temp/cclBUEjR.s:2948   .bss:00000008 pMIN_EEP
C:\DOCUME~1\ADMINI~1\LOCALS~1\Temp/cclBUEjR.s:2815   .eeprom:00000006 I_XSD_EEP
C:\DOCUME~1\ADMINI~1\LOCALS~1\Temp/cclBUEjR.s:2949   .bss:0000000a pXSD_EEP
C:\DOCUME~1\ADMINI~1\LOCALS~1\Temp/cclBUEjR.s:2820   .eeprom:00000007 I_ZERO_EEP
C:\DOCUME~1\ADMINI~1\LOCALS~1\Temp/cclBUEjR.s:2950   .bss:0000000c pADJ_ZERO
C:\DOCUME~1\ADMINI~1\LOCALS~1\Temp/cclBUEjR.s:2795   .eeprom:00000000 ADDR_EEP
                            *COM*:00000001 XiaoShuDian
C:\DOCUME~1\ADMINI~1\LOCALS~1\Temp/cclBUEjR.s:1818   .text:00000a7a SystemInit
C:\DOCUME~1\ADMINI~1\LOCALS~1\Temp/cclBUEjR.s:1884   .text:00000ab8 main
C:\DOCUME~1\ADMINI~1\LOCALS~1\Temp/cclBUEjR.s:2956   .bss:0000001d ID
C:\DOCUME~1\ADMINI~1\LOCALS~1\Temp/cclBUEjR.s:2885   .eeprom:0000001e ID0_EEP
C:\DOCUME~1\ADMINI~1\LOCALS~1\Temp/cclBUEjR.s:2890   .eeprom:00000020 ID1_EEP
C:\DOCUME~1\ADMINI~1\LOCALS~1\Temp/cclBUEjR.s:2955   .bss:00000019 V_DATA
C:\DOCUME~1\ADMINI~1\LOCALS~1\Temp/cclBUEjR.s:2953   .bss:00000011 V_MAX
C:\DOCUME~1\ADMINI~1\LOCALS~1\Temp/cclBUEjR.s:2954   .bss:00000015 V_MIN
C:\DOCUME~1\ADMINI~1\LOCALS~1\Temp/cclBUEjR.s:2825   .eeprom:00000009 T_MAX_EEP
C:\DOCUME~1\ADMINI~1\LOCALS~1\Temp/cclBUEjR.s:2830   .eeprom:0000000b T_MIN_EEP
C:\DOCUME~1\ADMINI~1\LOCALS~1\Temp/cclBUEjR.s:2835   .eeprom:0000000d T_XSD_EEP
C:\DOCUME~1\ADMINI~1\LOCALS~1\Temp/cclBUEjR.s:2840   .eeprom:0000000e T_ZERO_EEP
C:\DOCUME~1\ADMINI~1\LOCALS~1\Temp/cclBUEjR.s:2845   .eeprom:00000010 Y_MAX_EEP
C:\DOCUME~1\ADMINI~1\LOCALS~1\Temp/cclBUEjR.s:2850   .eeprom:00000012 Y_MIN_EEP
C:\DOCUME~1\ADMINI~1\LOCALS~1\Temp/cclBUEjR.s:2855   .eeprom:00000014 Y_XSD_EEP
C:\DOCUME~1\ADMINI~1\LOCALS~1\Temp/cclBUEjR.s:2860   .eeprom:00000015 Y_ZERO_EEP
C:\DOCUME~1\ADMINI~1\LOCALS~1\Temp/cclBUEjR.s:2865   .eeprom:00000017 L_MAX_EEP
C:\DOCUME~1\ADMINI~1\LOCALS~1\Temp/cclBUEjR.s:2870   .eeprom:00000019 L_MIN_EEP
C:\DOCUME~1\ADMINI~1\LOCALS~1\Temp/cclBUEjR.s:2875   .eeprom:0000001b L_XSD_EEP
C:\DOCUME~1\ADMINI~1\LOCALS~1\Temp/cclBUEjR.s:2880   .eeprom:0000001c L_ZERO_EEP
C:\DOCUME~1\ADMINI~1\LOCALS~1\Temp/cclBUEjR.s:2909   .bss:00000002 WorkMode
C:\DOCUME~1\ADMINI~1\LOCALS~1\Temp/cclBUEjR.s:2935   .data:00000004 QC_C_e

UNDEFINED SYMBOLS
__mulsi3
__divmodsi4
__udivmodsi4
DisplayHex
CRC16
ReadADS1110
Display10
__floatunsisf
__addsf3
__mulsf3
sqrt
pow
__gtsf2
__subsf3
ceil
__fixsfsi
Init_ADS1110
__eewr_byte_m8
__eerd_byte_m8
__eewr_word_m8
__eerd_word_m8
OpenDisplayLED
__divsf3
__do_copy_data
__do_clear_bss
