
main.elf:     file format elf32-avr

Sections:
Idx Name          Size      VMA       LMA       File off  Algn
  0 .text         00001568  00000000  00000000  000000b4  2**1
                  CONTENTS, ALLOC, LOAD, READONLY, CODE
  1 .data         00000034  00800060  00001568  0000161c  2**0
                  CONTENTS, ALLOC, LOAD, DATA
  2 .bss          00000055  00800094  00800094  00001650  2**0
                  ALLOC
  3 .eeprom       00000022  00810000  00810000  00001650  2**0
                  CONTENTS, ALLOC, LOAD, DATA
  4 .debug_aranges 00000080  00000000  00000000  00001672  2**0
                  CONTENTS, READONLY, DEBUGGING
  5 .debug_pubnames 0000051f  00000000  00000000  000016f2  2**0
                  CONTENTS, READONLY, DEBUGGING
  6 .debug_info   0000124d  00000000  00000000  00001c11  2**0
                  CONTENTS, READONLY, DEBUGGING
  7 .debug_abbrev 0000064f  00000000  00000000  00002e5e  2**0
                  CONTENTS, READONLY, DEBUGGING
  8 .debug_line   000011ac  00000000  00000000  000034ad  2**0
                  CONTENTS, READONLY, DEBUGGING
  9 .debug_frame  000002b0  00000000  00000000  0000465c  2**2
                  CONTENTS, READONLY, DEBUGGING
 10 .debug_str    00000753  00000000  00000000  0000490c  2**0
                  CONTENTS, READONLY, DEBUGGING
 11 .debug_loc    00000878  00000000  00000000  0000505f  2**0
                  CONTENTS, READONLY, DEBUGGING
 12 .debug_ranges 00000048  00000000  00000000  000058d7  2**0
                  CONTENTS, READONLY, DEBUGGING

Disassembly of section .text:

00000000 <__vectors>:
       0:	12 c0       	rjmp	.+36     	; 0x26 <__ctors_end>
       2:	2c c0       	rjmp	.+88     	; 0x5c <__bad_interrupt>
       4:	2b c0       	rjmp	.+86     	; 0x5c <__bad_interrupt>
       6:	2a c0       	rjmp	.+84     	; 0x5c <__bad_interrupt>
       8:	30 c1       	rjmp	.+608    	; 0x26a <__vector_4>
       a:	28 c0       	rjmp	.+80     	; 0x5c <__bad_interrupt>
       c:	27 c0       	rjmp	.+78     	; 0x5c <__bad_interrupt>
       e:	26 c0       	rjmp	.+76     	; 0x5c <__bad_interrupt>
      10:	b5 c0       	rjmp	.+362    	; 0x17c <__vector_8>
      12:	ab c7       	rjmp	.+3926   	; 0xf6a <__vector_9>
      14:	23 c0       	rjmp	.+70     	; 0x5c <__bad_interrupt>
      16:	8c c1       	rjmp	.+792    	; 0x330 <__vector_11>
      18:	21 c0       	rjmp	.+66     	; 0x5c <__bad_interrupt>
      1a:	20 c0       	rjmp	.+64     	; 0x5c <__bad_interrupt>
      1c:	1f c0       	rjmp	.+62     	; 0x5c <__bad_interrupt>
      1e:	1e c0       	rjmp	.+60     	; 0x5c <__bad_interrupt>
      20:	1d c0       	rjmp	.+58     	; 0x5c <__bad_interrupt>
      22:	1c c0       	rjmp	.+56     	; 0x5c <__bad_interrupt>
      24:	1b c0       	rjmp	.+54     	; 0x5c <__bad_interrupt>

00000026 <__ctors_end>:
      26:	11 24       	eor	r1, r1
      28:	1f be       	out	0x3f, r1	; 63
      2a:	cf e5       	ldi	r28, 0x5F	; 95
      2c:	d4 e0       	ldi	r29, 0x04	; 4
      2e:	de bf       	out	0x3e, r29	; 62
      30:	cd bf       	out	0x3d, r28	; 61

00000032 <__do_copy_data>:
      32:	10 e0       	ldi	r17, 0x00	; 0
      34:	a0 e6       	ldi	r26, 0x60	; 96
      36:	b0 e0       	ldi	r27, 0x00	; 0
      38:	e8 e6       	ldi	r30, 0x68	; 104
      3a:	f5 e1       	ldi	r31, 0x15	; 21
      3c:	02 c0       	rjmp	.+4      	; 0x42 <.do_copy_data_start>

0000003e <.do_copy_data_loop>:
      3e:	05 90       	lpm	r0, Z+
      40:	0d 92       	st	X+, r0

00000042 <.do_copy_data_start>:
      42:	a4 39       	cpi	r26, 0x94	; 148
      44:	b1 07       	cpc	r27, r17
      46:	d9 f7       	brne	.-10     	; 0x3e <.do_copy_data_loop>

00000048 <__do_clear_bss>:
      48:	10 e0       	ldi	r17, 0x00	; 0
      4a:	a4 e9       	ldi	r26, 0x94	; 148
      4c:	b0 e0       	ldi	r27, 0x00	; 0
      4e:	01 c0       	rjmp	.+2      	; 0x52 <.do_clear_bss_start>

00000050 <.do_clear_bss_loop>:
      50:	1d 92       	st	X+, r1

00000052 <.do_clear_bss_start>:
      52:	a9 3e       	cpi	r26, 0xE9	; 233
      54:	b1 07       	cpc	r27, r17
      56:	e1 f7       	brne	.-8      	; 0x50 <.do_clear_bss_loop>
      58:	8d d4       	rcall	.+2330   	; 0x974 <main>
      5a:	84 ca       	rjmp	.-2808   	; 0xfffff564 <__eeprom_end+0xff7ef542>

0000005c <__bad_interrupt>:
      5c:	d1 cf       	rjmp	.-94     	; 0x0 <__vectors>

0000005e <Out_MAX>:
//U_mV        0(mV)  400(mV)  2000(mV)  2048(mV)
//ADC_RESULT  0                         65535
#define DEF_VALUE_MAX(MAX,MIN)   ( (long)MIN + ((long)MAX - (long)MIN) * (long)(2048 - 400) / (long)(2000 - 400) )
#define DEF_VALUE_MIN(MAX,MIN)   ( (long)MIN - ((long)MAX - (long)MIN) / (long)4 )
signed long Out_MAX(signed int max,signed int min)
{
      5e:	ef 92       	push	r14
      60:	ff 92       	push	r15
      62:	0f 93       	push	r16
      64:	1f 93       	push	r17
      66:	7b 01       	movw	r14, r22
    signed long temp;

    temp = max - min;
      68:	86 1b       	sub	r24, r22
      6a:	97 0b       	sbc	r25, r23
      6c:	aa 27       	eor	r26, r26
      6e:	97 fd       	sbrc	r25, 7
      70:	a0 95       	com	r26
      72:	ba 2f       	mov	r27, r26
    temp *= (signed long)(2048-400);
      74:	bc 01       	movw	r22, r24
      76:	cd 01       	movw	r24, r26
      78:	20 e7       	ldi	r18, 0x70	; 112
      7a:	36 e0       	ldi	r19, 0x06	; 6
      7c:	40 e0       	ldi	r20, 0x00	; 0
      7e:	50 e0       	ldi	r21, 0x00	; 0
      80:	d4 d9       	rcall	.-3160   	; 0xfffff42a <__eeprom_end+0xff7ef408>
    temp /= (signed long)(2000-400);
      82:	20 e4       	ldi	r18, 0x40	; 64
      84:	36 e0       	ldi	r19, 0x06	; 6
      86:	40 e0       	ldi	r20, 0x00	; 0
      88:	50 e0       	ldi	r21, 0x00	; 0
      8a:	24 da       	rcall	.-3000   	; 0xfffff4d4 <__eeprom_end+0xff7ef4b2>
      8c:	c9 01       	movw	r24, r18
      8e:	da 01       	movw	r26, r20
      90:	00 27       	eor	r16, r16
      92:	f7 fc       	sbrc	r15, 7
      94:	00 95       	com	r16
      96:	10 2f       	mov	r17, r16
      98:	e8 0e       	add	r14, r24
      9a:	f9 1e       	adc	r15, r25
      9c:	0a 1f       	adc	r16, r26
      9e:	1b 1f       	adc	r17, r27
    temp += min;
    return temp;
}
      a0:	b7 01       	movw	r22, r14
      a2:	c8 01       	movw	r24, r16
      a4:	1f 91       	pop	r17
      a6:	0f 91       	pop	r16
      a8:	ff 90       	pop	r15
      aa:	ef 90       	pop	r14
      ac:	08 95       	ret

000000ae <Out_MIN>:
signed long Out_MIN(signed int max,signed int min)
{
      ae:	ef 92       	push	r14
      b0:	ff 92       	push	r15
      b2:	0f 93       	push	r16
      b4:	1f 93       	push	r17
      b6:	7b 01       	movw	r14, r22
    signed long temp;

    temp = max - min;
      b8:	86 1b       	sub	r24, r22
      ba:	97 0b       	sbc	r25, r23
      bc:	aa 27       	eor	r26, r26
      be:	97 fd       	sbrc	r25, 7
      c0:	a0 95       	com	r26
      c2:	ba 2f       	mov	r27, r26
    temp /= (signed long)(4);
      c4:	bc 01       	movw	r22, r24
      c6:	cd 01       	movw	r24, r26
      c8:	24 e0       	ldi	r18, 0x04	; 4
      ca:	30 e0       	ldi	r19, 0x00	; 0
      cc:	40 e0       	ldi	r20, 0x00	; 0
      ce:	50 e0       	ldi	r21, 0x00	; 0
      d0:	01 da       	rcall	.-3070   	; 0xfffff4d4 <__eeprom_end+0xff7ef4b2>
      d2:	c9 01       	movw	r24, r18
      d4:	da 01       	movw	r26, r20
      d6:	00 27       	eor	r16, r16
      d8:	f7 fc       	sbrc	r15, 7
      da:	00 95       	com	r16
      dc:	10 2f       	mov	r17, r16
      de:	e8 1a       	sub	r14, r24
      e0:	f9 0a       	sbc	r15, r25
      e2:	0a 0b       	sbc	r16, r26
      e4:	1b 0b       	sbc	r17, r27
    temp = min - temp;
    return temp;
}
      e6:	b7 01       	movw	r22, r14
      e8:	c8 01       	movw	r24, r16
      ea:	1f 91       	pop	r17
      ec:	0f 91       	pop	r16
      ee:	ff 90       	pop	r15
      f0:	ef 90       	pop	r14
      f2:	08 95       	ret

000000f4 <TimerDelayMs>:
volatile unsigned int   TimerCycleF;//
volatile unsigned char  TimerOver;//
/* ---------------------------------------------------------------------- */
void TimerDelayMs(unsigned int s)
{
	TimerCycleI = s >> 6;                   //TimerCycleN = s/64
      f4:	9c 01       	movw	r18, r24
      f6:	46 e0       	ldi	r20, 0x06	; 6
      f8:	36 95       	lsr	r19
      fa:	27 95       	ror	r18
      fc:	4a 95       	dec	r20
      fe:	e1 f7       	brne	.-8      	; 0xf8 <TimerDelayMs+0x4>
     100:	30 93 d9 00 	sts	0x00D9, r19
     104:	20 93 d8 00 	sts	0x00D8, r18
	TimerCycleF = 65535 - (s & 0x3F)*1000;  //TimerCycleF = s%64
     108:	8f 73       	andi	r24, 0x3F	; 63
     10a:	90 70       	andi	r25, 0x00	; 0
     10c:	28 ee       	ldi	r18, 0xE8	; 232
     10e:	33 e0       	ldi	r19, 0x03	; 3
     110:	ac 01       	movw	r20, r24
     112:	42 9f       	mul	r20, r18
     114:	c0 01       	movw	r24, r0
     116:	43 9f       	mul	r20, r19
     118:	90 0d       	add	r25, r0
     11a:	52 9f       	mul	r21, r18
     11c:	90 0d       	add	r25, r0
     11e:	11 24       	eor	r1, r1
     120:	80 95       	com	r24
     122:	90 95       	com	r25
     124:	90 93 c0 00 	sts	0x00C0, r25
     128:	80 93 bf 00 	sts	0x00BF, r24
	TimerOver = 0;
     12c:	10 92 d7 00 	sts	0x00D7, r1

	switch(TimerCycleI)
     130:	80 91 d8 00 	lds	r24, 0x00D8
     134:	90 91 d9 00 	lds	r25, 0x00D9
     138:	00 97       	sbiw	r24, 0x00	; 0
     13a:	21 f0       	breq	.+8      	; 0x144 <TimerDelayMs+0x50>
     13c:	8f 5f       	subi	r24, 0xFF	; 255
     13e:	9f 4f       	sbci	r25, 0xFF	; 255
     140:	91 f4       	brne	.+36     	; 0x166 <TimerDelayMs+0x72>
     142:	0a c0       	rjmp	.+20     	; 0x158 <TimerDelayMs+0x64>
	{
		case 0:
			SetTimerCount(TimerCycleF);
     144:	80 91 bf 00 	lds	r24, 0x00BF
     148:	90 91 c0 00 	lds	r25, 0x00C0
     14c:	9d bd       	out	0x2d, r25	; 45
     14e:	80 91 bf 00 	lds	r24, 0x00BF
     152:	90 91 c0 00 	lds	r25, 0x00C0
     156:	0a c0       	rjmp	.+20     	; 0x16c <TimerDelayMs+0x78>
			break;
		case -1:
			TimerDisable();
     158:	89 b7       	in	r24, 0x39	; 57
     15a:	8b 7f       	andi	r24, 0xFB	; 251
     15c:	89 bf       	out	0x39, r24	; 57
			TimerOver = 1;
     15e:	81 e0       	ldi	r24, 0x01	; 1
     160:	80 93 d7 00 	sts	0x00D7, r24
     164:	04 c0       	rjmp	.+8      	; 0x16e <TimerDelayMs+0x7a>
			break; 
		default:
			SetTimerCount(1535);
     166:	85 e0       	ldi	r24, 0x05	; 5
     168:	8d bd       	out	0x2d, r24	; 45
     16a:	8f ef       	ldi	r24, 0xFF	; 255
     16c:	8c bd       	out	0x2c, r24	; 44
			//TCNT1H = 1535/256;
			//TCNT1L = 1535%256;
			break;	
	}
	TimerEnable();
     16e:	89 b7       	in	r24, 0x39	; 57
     170:	84 60       	ori	r24, 0x04	; 4
     172:	89 bf       	out	0x39, r24	; 57
	TimerStart();
     174:	8e b5       	in	r24, 0x2e	; 46
     176:	82 60       	ori	r24, 0x02	; 2
     178:	8e bd       	out	0x2e, r24	; 46
}
     17a:	08 95       	ret

0000017c <__vector_8>:
/* ---------------------------------------------------------------------- */
SIGNAL(SIG_OVERFLOW1)
{
     17c:	1f 92       	push	r1
     17e:	0f 92       	push	r0
     180:	0f b6       	in	r0, 0x3f	; 63
     182:	0f 92       	push	r0
     184:	11 24       	eor	r1, r1
     186:	2f 93       	push	r18
     188:	8f 93       	push	r24
     18a:	9f 93       	push	r25
	
	TimerCycleI--;
     18c:	80 91 d8 00 	lds	r24, 0x00D8
     190:	90 91 d9 00 	lds	r25, 0x00D9
     194:	01 97       	sbiw	r24, 0x01	; 1
     196:	90 93 d9 00 	sts	0x00D9, r25
     19a:	80 93 d8 00 	sts	0x00D8, r24
	switch(TimerCycleI)
     19e:	80 91 d8 00 	lds	r24, 0x00D8
     1a2:	90 91 d9 00 	lds	r25, 0x00D9
     1a6:	00 97       	sbiw	r24, 0x00	; 0
     1a8:	21 f0       	breq	.+8      	; 0x1b2 <__vector_8+0x36>
     1aa:	8f 5f       	subi	r24, 0xFF	; 255
     1ac:	9f 4f       	sbci	r25, 0xFF	; 255
     1ae:	a9 f4       	brne	.+42     	; 0x1da <__vector_8+0x5e>
     1b0:	0a c0       	rjmp	.+20     	; 0x1c6 <__vector_8+0x4a>
	{
		case 0:
			SetTimerCount(TimerCycleF);
     1b2:	80 91 bf 00 	lds	r24, 0x00BF
     1b6:	90 91 c0 00 	lds	r25, 0x00C0
     1ba:	9d bd       	out	0x2d, r25	; 45
     1bc:	80 91 bf 00 	lds	r24, 0x00BF
     1c0:	90 91 c0 00 	lds	r25, 0x00C0
     1c4:	0d c0       	rjmp	.+26     	; 0x1e0 <__vector_8+0x64>
			break;
		case -1:
			TimerStop();
     1c6:	8e b5       	in	r24, 0x2e	; 46
     1c8:	88 7f       	andi	r24, 0xF8	; 248
     1ca:	8e bd       	out	0x2e, r24	; 46
			TimerDisable();
     1cc:	89 b7       	in	r24, 0x39	; 57
     1ce:	8b 7f       	andi	r24, 0xFB	; 251
     1d0:	89 bf       	out	0x39, r24	; 57
			TimerOver = 1;
     1d2:	81 e0       	ldi	r24, 0x01	; 1
     1d4:	80 93 d7 00 	sts	0x00D7, r24
     1d8:	04 c0       	rjmp	.+8      	; 0x1e2 <__vector_8+0x66>
			return;
		default:
			SetTimerCount(1535);
     1da:	85 e0       	ldi	r24, 0x05	; 5
     1dc:	8d bd       	out	0x2d, r24	; 45
     1de:	8f ef       	ldi	r24, 0xFF	; 255
     1e0:	8c bd       	out	0x2c, r24	; 44
			break;	
	}
}
     1e2:	9f 91       	pop	r25
     1e4:	8f 91       	pop	r24
     1e6:	2f 91       	pop	r18
     1e8:	0f 90       	pop	r0
     1ea:	0f be       	out	0x3f, r0	; 63
     1ec:	0f 90       	pop	r0
     1ee:	1f 90       	pop	r1
     1f0:	18 95       	reti

000001f2 <USART_Init>:

/* ********************************************************************** */
void USART_Init(unsigned int baud)
{
    /* set baud rate */
    UBRRH = (F_CPU/baud/16-1)/256;
     1f2:	9c 01       	movw	r18, r24
     1f4:	40 e0       	ldi	r20, 0x00	; 0
     1f6:	50 e0       	ldi	r21, 0x00	; 0
     1f8:	60 e2       	ldi	r22, 0x20	; 32
     1fa:	71 ea       	ldi	r23, 0xA1	; 161
     1fc:	87 e0       	ldi	r24, 0x07	; 7
     1fe:	90 e0       	ldi	r25, 0x00	; 0
     200:	47 d9       	rcall	.-3442   	; 0xfffff490 <__eeprom_end+0xff7ef46e>
     202:	c9 01       	movw	r24, r18
     204:	da 01       	movw	r26, r20
     206:	01 97       	sbiw	r24, 0x01	; 1
     208:	a1 09       	sbc	r26, r1
     20a:	b1 09       	sbc	r27, r1
     20c:	29 2f       	mov	r18, r25
     20e:	3a 2f       	mov	r19, r26
     210:	4b 2f       	mov	r20, r27
     212:	55 27       	eor	r21, r21
     214:	01 96       	adiw	r24, 0x01	; 1
     216:	a1 1d       	adc	r26, r1
     218:	b1 1d       	adc	r27, r1
     21a:	20 bd       	out	0x20, r18	; 32
    UBRRL = (F_CPU/baud/16-1)%256;
     21c:	81 50       	subi	r24, 0x01	; 1
     21e:	89 b9       	out	0x09, r24	; 9
    /* Enable Receiver and Transmitter Enable Receiver interrupt */
    UCSRB =(1<<RXCIE)|(1<<RXEN)|(1<<TXEN);
     220:	88 e9       	ldi	r24, 0x98	; 152
     222:	8a b9       	out	0x0a, r24	; 10
    /* Set frame format: 8data,2stop bit */
    UCSRC = (1<<URSEL)|
     224:	86 e8       	ldi	r24, 0x86	; 134
     226:	80 bd       	out	0x20, r24	; 32
        (0<<UMSEL)|    /* 0:Asynchronous 1:Synchronous */
        (0<<UPM0)|    /* 0:Disable 1:Reserved 2:Even Parity 3:Odd Parity */
        (0<<USBS)|    /* Stop Bit 0:1-bit 1:2-bit */
        (3<<UCSZ0);    /* Data bit 0 ~ 7 : 5,6,7,8,-,-,-,9 */
}
     228:	08 95       	ret

0000022a <USART_Transmit>:
void USART_Transmit(unsigned char data)
{
    while(!(UCSRA & (1<<UDRE)));
     22a:	5d 9b       	sbis	0x0b, 5	; 11
     22c:	fe cf       	rjmp	.-4      	; 0x22a <USART_Transmit>
    UDR = data;
     22e:	8c b9       	out	0x0c, r24	; 12
}
     230:	08 95       	ret

00000232 <printk>:

#define putchar USART_Transmit
void printk(char *s)
{
     232:	fc 01       	movw	r30, r24
    if(s == NULL || *s == '\0')
     234:	00 97       	sbiw	r24, 0x00	; 0
     236:	69 f0       	breq	.+26     	; 0x252 <printk+0x20>
     238:	80 81       	ld	r24, Z
     23a:	88 23       	and	r24, r24
     23c:	51 f0       	breq	.+20     	; 0x252 <printk+0x20>
        return;
    TX485();
     23e:	92 9a       	sbi	0x12, 2	; 18
     240:	04 c0       	rjmp	.+8      	; 0x24a <printk+0x18>
        (0<<USBS)|    /* Stop Bit 0:1-bit 1:2-bit */
        (3<<UCSZ0);    /* Data bit 0 ~ 7 : 5,6,7,8,-,-,-,9 */
}
void USART_Transmit(unsigned char data)
{
    while(!(UCSRA & (1<<UDRE)));
     242:	5d 9b       	sbis	0x0b, 5	; 11
     244:	fe cf       	rjmp	.-4      	; 0x242 <printk+0x10>
{
    if(s == NULL || *s == '\0')
        return;
    TX485();
    while(*s != '\0'){
        putchar(*s++);
     246:	31 96       	adiw	r30, 0x01	; 1
        (3<<UCSZ0);    /* Data bit 0 ~ 7 : 5,6,7,8,-,-,-,9 */
}
void USART_Transmit(unsigned char data)
{
    while(!(UCSRA & (1<<UDRE)));
    UDR = data;
     248:	8c b9       	out	0x0c, r24	; 12
void printk(char *s)
{
    if(s == NULL || *s == '\0')
        return;
    TX485();
    while(*s != '\0'){
     24a:	80 81       	ld	r24, Z
     24c:	88 23       	and	r24, r24
     24e:	c9 f7       	brne	.-14     	; 0x242 <printk+0x10>
        putchar(*s++);
    }
    RX485();
     250:	92 98       	cbi	0x12, 2	; 18
     252:	08 95       	ret

00000254 <RxOverrunTimer>:
}
/* ********************************************************************** */
void RxOverrunTimer(void)
{
    /* enabile Timer0 */
    TCNT2 = FrameInterval;
     254:	89 e4       	ldi	r24, 0x49	; 73
     256:	84 bd       	out	0x24, r24	; 36
    TIFR |= (1<<TOV2);
     258:	88 b7       	in	r24, 0x38	; 56
     25a:	80 64       	ori	r24, 0x40	; 64
     25c:	88 bf       	out	0x38, r24	; 56
    TIMSK |= (1<<TOIE2);
     25e:	89 b7       	in	r24, 0x39	; 57
     260:	80 64       	ori	r24, 0x40	; 64
     262:	89 bf       	out	0x39, r24	; 57
    RxFrameComplete = 0;
     264:	10 92 95 00 	sts	0x0095, r1
}
     268:	08 95       	ret

0000026a <__vector_4>:
SIGNAL(SIG_OVERFLOW2)
{
     26a:	1f 92       	push	r1
     26c:	0f 92       	push	r0
     26e:	0f b6       	in	r0, 0x3f	; 63
     270:	0f 92       	push	r0
     272:	11 24       	eor	r1, r1
     274:	2f 93       	push	r18
     276:	3f 93       	push	r19
     278:	8f 93       	push	r24
     27a:	9f 93       	push	r25
     27c:	ef 93       	push	r30
     27e:	ff 93       	push	r31
    TIMSK &= ~(1<<TOIE2);
     280:	89 b7       	in	r24, 0x39	; 57
     282:	8f 7b       	andi	r24, 0xBF	; 191
     284:	89 bf       	out	0x39, r24	; 57
    TIFR |= (1<<TOV2);
     286:	88 b7       	in	r24, 0x38	; 56
     288:	80 64       	ori	r24, 0x40	; 64
     28a:	88 bf       	out	0x38, r24	; 56
#if 1
    switch(RxMode)
     28c:	80 91 94 00 	lds	r24, 0x0094
     290:	81 30       	cpi	r24, 0x01	; 1
     292:	88 f1       	brcs	.+98     	; 0x2f6 <__vector_4+0x8c>
     294:	83 30       	cpi	r24, 0x03	; 3
     296:	d8 f1       	brcs	.+118    	; 0x30e <__vector_4+0xa4>
     298:	83 30       	cpi	r24, 0x03	; 3
     29a:	69 f5       	brne	.+90     	; 0x2f6 <__vector_4+0x8c>
            break;
        case 2: /* receive Addr and FunCode only */
            //ErrorDisplay(ERRCODE_ReceiveDataErr);
            break;
        case 3: /* receive All */
            if(RxFrame.Len < 2){
     29c:	80 91 ba 00 	lds	r24, 0x00BA
     2a0:	90 91 bb 00 	lds	r25, 0x00BB
     2a4:	23 ec       	ldi	r18, 0xC3	; 195
     2a6:	30 e0       	ldi	r19, 0x00	; 0
     2a8:	02 97       	sbiw	r24, 0x02	; 2
     2aa:	68 f4       	brcc	.+26     	; 0x2c6 <__vector_4+0x5c>
        return 0;
    return 1;
}
void ErrorDisplay(unsigned int ErrCode)
{
    ErrFlag = 1;
     2ac:	81 e0       	ldi	r24, 0x01	; 1
     2ae:	90 e0       	ldi	r25, 0x00	; 0
     2b0:	90 93 d6 00 	sts	0x00D6, r25
     2b4:	80 93 d5 00 	sts	0x00D5, r24
    ErrCode &= 0x0FFF;
    ErrCodeDisplay = ErrCode | 0xE000;
     2b8:	84 e0       	ldi	r24, 0x04	; 4
     2ba:	90 ee       	ldi	r25, 0xE0	; 224
     2bc:	90 93 e1 00 	sts	0x00E1, r25
     2c0:	80 93 e0 00 	sts	0x00E0, r24
     2c4:	13 c0       	rjmp	.+38     	; 0x2ec <__vector_4+0x82>
            if(RxFrame.Len < 2){
                ErrorDisplay(ERRCODE_ReceiveDataErr);
                RxFrame.Data = RxArrayTemp + 2;
                break;
            }
            RxFrameComplete = 1;
     2c6:	81 e0       	ldi	r24, 0x01	; 1
     2c8:	80 93 95 00 	sts	0x0095, r24
            RxFrame.CRCL = *(RxFrame.Data - 2);
     2cc:	e0 91 b8 00 	lds	r30, 0x00B8
     2d0:	f0 91 b9 00 	lds	r31, 0x00B9
     2d4:	32 97       	sbiw	r30, 0x02	; 2
     2d6:	80 81       	ld	r24, Z
     2d8:	80 93 bd 00 	sts	0x00BD, r24
            RxFrame.CRCH = *(RxFrame.Data - 1);
     2dc:	e0 91 b8 00 	lds	r30, 0x00B8
     2e0:	f0 91 b9 00 	lds	r31, 0x00B9
     2e4:	31 97       	sbiw	r30, 0x01	; 1
     2e6:	80 81       	ld	r24, Z
     2e8:	80 93 bc 00 	sts	0x00BC, r24
            RxFrame.Data = RxArrayTemp + 2;
     2ec:	30 93 b9 00 	sts	0x00B9, r19
     2f0:	20 93 b8 00 	sts	0x00B8, r18
     2f4:	0c c0       	rjmp	.+24     	; 0x30e <__vector_4+0xa4>
        return 0;
    return 1;
}
void ErrorDisplay(unsigned int ErrCode)
{
    ErrFlag = 1;
     2f6:	81 e0       	ldi	r24, 0x01	; 1
     2f8:	90 e0       	ldi	r25, 0x00	; 0
     2fa:	90 93 d6 00 	sts	0x00D6, r25
     2fe:	80 93 d5 00 	sts	0x00D5, r24
    ErrCode &= 0x0FFF;
    ErrCodeDisplay = ErrCode | 0xE000;
     302:	84 e0       	ldi	r24, 0x04	; 4
     304:	90 ee       	ldi	r25, 0xE0	; 224
     306:	90 93 e1 00 	sts	0x00E1, r25
     30a:	80 93 e0 00 	sts	0x00E0, r24
            break;
        default :
            ErrorDisplay(ERRCODE_ReceiveDataErr);
    }
    /* Stop Timer2 */
    TIMSK &= ~(1<<TOIE2);
     30e:	89 b7       	in	r24, 0x39	; 57
     310:	8f 7b       	andi	r24, 0xBF	; 191
     312:	89 bf       	out	0x39, r24	; 57
    TCNT2 = 0x00;
     314:	14 bc       	out	0x24, r1	; 36
    RxMode = 0;
     316:	10 92 94 00 	sts	0x0094, r1
#else
    PORTD ^= (1<<6);
    RxOverrunTimer();
#endif
}
     31a:	ff 91       	pop	r31
     31c:	ef 91       	pop	r30
     31e:	9f 91       	pop	r25
     320:	8f 91       	pop	r24
     322:	3f 91       	pop	r19
     324:	2f 91       	pop	r18
     326:	0f 90       	pop	r0
     328:	0f be       	out	0x3f, r0	; 63
     32a:	0f 90       	pop	r0
     32c:	1f 90       	pop	r1
     32e:	18 95       	reti

00000330 <__vector_11>:
/* ********************************************************************** */
SIGNAL(SIG_UART_RECV)
{
     330:	1f 92       	push	r1
     332:	0f 92       	push	r0
     334:	0f b6       	in	r0, 0x3f	; 63
     336:	0f 92       	push	r0
     338:	11 24       	eor	r1, r1
     33a:	2f 93       	push	r18
     33c:	3f 93       	push	r19
     33e:	4f 93       	push	r20
     340:	5f 93       	push	r21
     342:	6f 93       	push	r22
     344:	7f 93       	push	r23
     346:	8f 93       	push	r24
     348:	9f 93       	push	r25
     34a:	af 93       	push	r26
     34c:	bf 93       	push	r27
     34e:	ef 93       	push	r30
     350:	ff 93       	push	r31
    if(! (UCSRA & (1<<RXC))){
     352:	5f 9b       	sbis	0x0b, 7	; 11
     354:	73 c0       	rjmp	.+230    	; 0x43c <__vector_11+0x10c>
        return;
    }
    cli();
     356:	f8 94       	cli
    TIMSK &= ~(1<<TOIE2);
     358:	89 b7       	in	r24, 0x39	; 57
     35a:	8f 7b       	andi	r24, 0xBF	; 191
     35c:	89 bf       	out	0x39, r24	; 57
    if(UCSRA & ((1<<FE)|(1<<DOR)|(1<<PE))){
     35e:	8b b1       	in	r24, 0x0b	; 11
     360:	8c 71       	andi	r24, 0x1C	; 28
     362:	61 f0       	breq	.+24     	; 0x37c <__vector_11+0x4c>
        return 0;
    return 1;
}
void ErrorDisplay(unsigned int ErrCode)
{
    ErrFlag = 1;
     364:	81 e0       	ldi	r24, 0x01	; 1
     366:	90 e0       	ldi	r25, 0x00	; 0
     368:	90 93 d6 00 	sts	0x00D6, r25
     36c:	80 93 d5 00 	sts	0x00D5, r24
    ErrCode &= 0x0FFF;
    ErrCodeDisplay = ErrCode | 0xE000;
     370:	86 e0       	ldi	r24, 0x06	; 6
     372:	90 ee       	ldi	r25, 0xE0	; 224
     374:	90 93 e1 00 	sts	0x00E1, r25
     378:	80 93 e0 00 	sts	0x00E0, r24
    cli();
    TIMSK &= ~(1<<TOIE2);
    if(UCSRA & ((1<<FE)|(1<<DOR)|(1<<PE))){
        ErrorDisplay(ERRCODE_ReceiveBitErr);
    }
    RXDataTemp = UDR;
     37c:	8c b1       	in	r24, 0x0c	; 12
     37e:	80 93 97 00 	sts	0x0097, r24
#if 0
    TX485();
    putchar(RXDataTemp);
    RX485();
#endif
    switch(RxMode)
     382:	80 91 94 00 	lds	r24, 0x0094
     386:	81 30       	cpi	r24, 0x01	; 1
     388:	81 f0       	breq	.+32     	; 0x3aa <__vector_11+0x7a>
     38a:	81 30       	cpi	r24, 0x01	; 1
     38c:	20 f0       	brcs	.+8      	; 0x396 <__vector_11+0x66>
     38e:	84 30       	cpi	r24, 0x04	; 4
     390:	08 f0       	brcs	.+2      	; 0x394 <__vector_11+0x64>
     392:	52 c0       	rjmp	.+164    	; 0x438 <__vector_11+0x108>
     394:	1e c0       	rjmp	.+60     	; 0x3d2 <__vector_11+0xa2>
    {
        case 0x00:
            RxFrame.Addr = RXDataTemp;
     396:	80 91 97 00 	lds	r24, 0x0097
     39a:	80 93 b6 00 	sts	0x00B6, r24
            RxArrayTemp[0] = RXDataTemp;
     39e:	80 91 97 00 	lds	r24, 0x0097
     3a2:	80 93 c1 00 	sts	0x00C1, r24
            RxMode = 0x01;
     3a6:	81 e0       	ldi	r24, 0x01	; 1
     3a8:	45 c0       	rjmp	.+138    	; 0x434 <__vector_11+0x104>
            break;
        case 0x01:
            RxFrame.FunCode = RXDataTemp;
     3aa:	80 91 97 00 	lds	r24, 0x0097
     3ae:	80 93 b7 00 	sts	0x00B7, r24
            RxArrayTemp[1] = RXDataTemp;
     3b2:	80 91 97 00 	lds	r24, 0x0097
     3b6:	80 93 c2 00 	sts	0x00C2, r24
            RxFrame.Data = RxArrayTemp + 2;
     3ba:	83 ec       	ldi	r24, 0xC3	; 195
     3bc:	90 e0       	ldi	r25, 0x00	; 0
     3be:	90 93 b9 00 	sts	0x00B9, r25
     3c2:	80 93 b8 00 	sts	0x00B8, r24
            RxFrame.Len = 0;
     3c6:	10 92 bb 00 	sts	0x00BB, r1
     3ca:	10 92 ba 00 	sts	0x00BA, r1
            RxMode = 0x02;
     3ce:	82 e0       	ldi	r24, 0x02	; 2
     3d0:	31 c0       	rjmp	.+98     	; 0x434 <__vector_11+0x104>
            break;
        case 0x02:
        case 0x03:
            *(RxFrame.Data++) = RXDataTemp;
     3d2:	e0 91 b8 00 	lds	r30, 0x00B8
     3d6:	f0 91 b9 00 	lds	r31, 0x00B9
     3da:	80 91 97 00 	lds	r24, 0x0097
     3de:	81 93       	st	Z+, r24
     3e0:	f0 93 b9 00 	sts	0x00B9, r31
     3e4:	e0 93 b8 00 	sts	0x00B8, r30
            RxFrame.Len++;
     3e8:	80 91 ba 00 	lds	r24, 0x00BA
     3ec:	90 91 bb 00 	lds	r25, 0x00BB
     3f0:	01 96       	adiw	r24, 0x01	; 1
     3f2:	90 93 bb 00 	sts	0x00BB, r25
     3f6:	80 93 ba 00 	sts	0x00BA, r24
            if(RxFrame.Len == (RXARRAYTEMP_MAX-2)){
     3fa:	80 91 ba 00 	lds	r24, 0x00BA
     3fe:	90 91 bb 00 	lds	r25, 0x00BB
     402:	42 97       	sbiw	r24, 0x12	; 18
     404:	b1 f4       	brne	.+44     	; 0x432 <__vector_11+0x102>
                RxFrame.Data = RxArrayTemp + 2;
     406:	83 ec       	ldi	r24, 0xC3	; 195
     408:	90 e0       	ldi	r25, 0x00	; 0
     40a:	90 93 b9 00 	sts	0x00B9, r25
     40e:	80 93 b8 00 	sts	0x00B8, r24
                RxFrame.Len = 0;
     412:	10 92 bb 00 	sts	0x00BB, r1
     416:	10 92 ba 00 	sts	0x00BA, r1
        return 0;
    return 1;
}
void ErrorDisplay(unsigned int ErrCode)
{
    ErrFlag = 1;
     41a:	81 e0       	ldi	r24, 0x01	; 1
     41c:	90 e0       	ldi	r25, 0x00	; 0
     41e:	90 93 d6 00 	sts	0x00D6, r25
     422:	80 93 d5 00 	sts	0x00D5, r24
    ErrCode &= 0x0FFF;
    ErrCodeDisplay = ErrCode | 0xE000;
     426:	87 e0       	ldi	r24, 0x07	; 7
     428:	90 ee       	ldi	r25, 0xE0	; 224
     42a:	90 93 e1 00 	sts	0x00E1, r25
     42e:	80 93 e0 00 	sts	0x00E0, r24
            if(RxFrame.Len == (RXARRAYTEMP_MAX-2)){
                RxFrame.Data = RxArrayTemp + 2;
                RxFrame.Len = 0;
                ErrorDisplay(ERRCODE_RXARRAYTEMP_MAXErr);
            }
            RxMode = 0x03;
     432:	83 e0       	ldi	r24, 0x03	; 3
     434:	80 93 94 00 	sts	0x0094, r24
            break;
    }
    RxOverrunTimer();
     438:	0d df       	rcall	.-486    	; 0x254 <RxOverrunTimer>
    sei();
     43a:	78 94       	sei
}
     43c:	ff 91       	pop	r31
     43e:	ef 91       	pop	r30
     440:	bf 91       	pop	r27
     442:	af 91       	pop	r26
     444:	9f 91       	pop	r25
     446:	8f 91       	pop	r24
     448:	7f 91       	pop	r23
     44a:	6f 91       	pop	r22
     44c:	5f 91       	pop	r21
     44e:	4f 91       	pop	r20
     450:	3f 91       	pop	r19
     452:	2f 91       	pop	r18
     454:	0f 90       	pop	r0
     456:	0f be       	out	0x3f, r0	; 63
     458:	0f 90       	pop	r0
     45a:	1f 90       	pop	r1
     45c:	18 95       	reti

0000045e <ErrorDisplay>:
        return 0;
    return 1;
}
void ErrorDisplay(unsigned int ErrCode)
{
    ErrFlag = 1;
     45e:	21 e0       	ldi	r18, 0x01	; 1
     460:	30 e0       	ldi	r19, 0x00	; 0
     462:	30 93 d6 00 	sts	0x00D6, r19
     466:	20 93 d5 00 	sts	0x00D5, r18
    ErrCode &= 0x0FFF;
    ErrCodeDisplay = ErrCode | 0xE000;
     46a:	9f 70       	andi	r25, 0x0F	; 15
     46c:	90 6e       	ori	r25, 0xE0	; 224
     46e:	90 93 e1 00 	sts	0x00E1, r25
     472:	80 93 e0 00 	sts	0x00E0, r24

}
     476:	08 95       	ret

00000478 <IsErrorOrNot>:
void IsErrorOrNot(void)
{
    if(ErrFlag)
     478:	80 91 d5 00 	lds	r24, 0x00D5
     47c:	90 91 d6 00 	lds	r25, 0x00D6
     480:	89 2b       	or	r24, r25
     482:	69 f0       	breq	.+26     	; 0x49e <IsErrorOrNot+0x26>
    {
        if(ErrFlag > 2);
     484:	80 91 d5 00 	lds	r24, 0x00D5
     488:	90 91 d6 00 	lds	r25, 0x00D6
            ErrFlag = 0;
     48c:	10 92 d6 00 	sts	0x00D6, r1
     490:	10 92 d5 00 	sts	0x00D5, r1
        DisplayHex(ErrCodeDisplay);
     494:	80 91 e0 00 	lds	r24, 0x00E0
     498:	90 91 e1 00 	lds	r25, 0x00E1
     49c:	ca d5       	rcall	.+2964   	; 0x1032 <DisplayHex>
     49e:	08 95       	ret

000004a0 <FrameCRC16IsOK>:
    _delay_ms(10);
    RX485();
#endif
}
unsigned char FrameCRC16IsOK(MODBUSFRAME Temp)
{
     4a0:	ff 92       	push	r15
     4a2:	0f 93       	push	r16
     4a4:	1f 93       	push	r17
     4a6:	df 93       	push	r29
     4a8:	cf 93       	push	r28
     4aa:	cd b7       	in	r28, 0x3d	; 61
     4ac:	de b7       	in	r29, 0x3e	; 62
     4ae:	6c 97       	sbiw	r28, 0x1c	; 28
     4b0:	0f b6       	in	r0, 0x3f	; 63
     4b2:	f8 94       	cli
     4b4:	de bf       	out	0x3e, r29	; 62
     4b6:	0f be       	out	0x3f, r0	; 63
     4b8:	cd bf       	out	0x3d, r28	; 61
     4ba:	f2 2f       	mov	r31, r18
     4bc:	2d 8b       	std	Y+21, r18	; 0x15
     4be:	3e 8b       	std	Y+22, r19	; 0x16
     4c0:	24 2f       	mov	r18, r20
     4c2:	4f 8b       	std	Y+23, r20	; 0x17
     4c4:	58 8f       	std	Y+24, r21	; 0x18
     4c6:	69 8f       	std	Y+25, r22	; 0x19
     4c8:	7a 8f       	std	Y+26, r23	; 0x1a
     4ca:	8b 8f       	std	Y+27, r24	; 0x1b
     4cc:	9c 8f       	std	Y+28, r25	; 0x1c
     4ce:	12 2f       	mov	r17, r18
     4d0:	69 8d       	ldd	r22, Y+25	; 0x19
     4d2:	7a 8d       	ldd	r23, Y+26	; 0x1a
     4d4:	09 2f       	mov	r16, r25
     4d6:	f8 2e       	mov	r15, r24
    unsigned char i;
    unsigned int CRCtemp;
    unsigned char sch[RXARRAYTEMP_MAX];
    sch[0] = Temp.Addr;
     4d8:	f9 83       	std	Y+1, r31	; 0x01
    sch[1] = Temp.FunCode;
     4da:	3a 83       	std	Y+2, r19	; 0x02
     4dc:	35 2f       	mov	r19, r21
     4de:	c9 01       	movw	r24, r18
     4e0:	dc 01       	movw	r26, r24
    for(i=0;i<(Temp.Len-2);i++,Temp.Data++)
     4e2:	9b 01       	movw	r18, r22
     4e4:	22 50       	subi	r18, 0x02	; 2
     4e6:	30 40       	sbci	r19, 0x00	; 0
        sch[i+2] = *(Temp.Data);
     4e8:	ae 01       	movw	r20, r28
     4ea:	4d 5f       	subi	r20, 0xFD	; 253
     4ec:	5f 4f       	sbci	r21, 0xFF	; 255
     4ee:	04 c0       	rjmp	.+8      	; 0x4f8 <FrameCRC16IsOK+0x58>
     4f0:	e4 0f       	add	r30, r20
     4f2:	f5 1f       	adc	r31, r21
     4f4:	8d 91       	ld	r24, X+
     4f6:	80 83       	st	Z, r24
     4f8:	8a 2f       	mov	r24, r26
     4fa:	81 1b       	sub	r24, r17
    unsigned char i;
    unsigned int CRCtemp;
    unsigned char sch[RXARRAYTEMP_MAX];
    sch[0] = Temp.Addr;
    sch[1] = Temp.FunCode;
    for(i=0;i<(Temp.Len-2);i++,Temp.Data++)
     4fc:	e8 2f       	mov	r30, r24
     4fe:	f0 e0       	ldi	r31, 0x00	; 0
     500:	e2 17       	cp	r30, r18
     502:	f3 07       	cpc	r31, r19
     504:	a8 f3       	brcs	.-22     	; 0x4f0 <FrameCRC16IsOK+0x50>
        sch[i+2] = *(Temp.Data);
    CRCtemp = CRC16(sch, Temp.Len);
     506:	ce 01       	movw	r24, r28
     508:	01 96       	adiw	r24, 0x01	; 1
     50a:	3f d6       	rcall	.+3198   	; 0x118a <CRC16>

    if(Temp.CRCL != (unsigned char)CRCtemp)
     50c:	08 17       	cp	r16, r24
     50e:	11 f0       	breq	.+4      	; 0x514 <FrameCRC16IsOK+0x74>
     510:	80 e0       	ldi	r24, 0x00	; 0
     512:	04 c0       	rjmp	.+8      	; 0x51c <FrameCRC16IsOK+0x7c>
     514:	80 e0       	ldi	r24, 0x00	; 0
     516:	f9 16       	cp	r15, r25
     518:	09 f4       	brne	.+2      	; 0x51c <FrameCRC16IsOK+0x7c>
     51a:	81 e0       	ldi	r24, 0x01	; 1
        return 0;
    if(Temp.CRCH != (unsigned char)(CRCtemp>>8))
        return 0;
    return 1;
}
     51c:	6c 96       	adiw	r28, 0x1c	; 28
     51e:	0f b6       	in	r0, 0x3f	; 63
     520:	f8 94       	cli
     522:	de bf       	out	0x3e, r29	; 62
     524:	0f be       	out	0x3f, r0	; 63
     526:	cd bf       	out	0x3d, r28	; 61
     528:	cf 91       	pop	r28
     52a:	df 91       	pop	r29
     52c:	1f 91       	pop	r17
     52e:	0f 91       	pop	r16
     530:	ff 90       	pop	r15
     532:	08 95       	ret

00000534 <SendDataToPC>:
            ErrFlag ++;
    }
#endif
}
void SendDataToPC(FUNCODE Fcode, unsigned char * SendTemp, unsigned int Len)
{
     534:	ef 92       	push	r14
     536:	ff 92       	push	r15
     538:	0f 93       	push	r16
     53a:	1f 93       	push	r17
     53c:	df 93       	push	r29
     53e:	cf 93       	push	r28
     540:	cd b7       	in	r28, 0x3d	; 61
     542:	de b7       	in	r29, 0x3e	; 62
     544:	64 97       	sbiw	r28, 0x14	; 20
     546:	0f b6       	in	r0, 0x3f	; 63
     548:	f8 94       	cli
     54a:	de bf       	out	0x3e, r29	; 62
     54c:	0f be       	out	0x3f, r0	; 63
     54e:	cd bf       	out	0x3d, r28	; 61
     550:	8b 01       	movw	r16, r22
#else
    unsigned char ModbusTemp[RXARRAYTEMP_MAX];
    unsigned short RxCRC16;
    unsigned char i;
    unsigned char count;
    ModbusTemp[0] = DeviceAddr;
     552:	90 91 e2 00 	lds	r25, 0x00E2
     556:	99 83       	std	Y+1, r25	; 0x01
    ModbusTemp[1] = Fcode;
     558:	8a 83       	std	Y+2, r24	; 0x02

    if(Fcode != SET_DEVICEADDR){
     55a:	86 30       	cpi	r24, 0x06	; 6
     55c:	11 f4       	brne	.+4      	; 0x562 <SendDataToPC+0x2e>
     55e:	82 e0       	ldi	r24, 0x02	; 2
     560:	02 c0       	rjmp	.+4      	; 0x566 <SendDataToPC+0x32>
        count = 3;
        ModbusTemp[2] = (unsigned char)(Len & 0xFF);
     562:	4b 83       	std	Y+3, r20	; 0x03
     564:	83 e0       	ldi	r24, 0x03	; 3
     566:	20 e0       	ldi	r18, 0x00	; 0
     568:	68 2f       	mov	r22, r24
     56a:	70 e0       	ldi	r23, 0x00	; 0
     56c:	7e 01       	movw	r14, r28
     56e:	08 94       	sec
     570:	e1 1c       	adc	r14, r1
     572:	f1 1c       	adc	r15, r1
     574:	0a c0       	rjmp	.+20     	; 0x58a <SendDataToPC+0x56>
    }else{
        count = 2;
    }
    for(i = 0;i < Len;i++){
        ModbusTemp[i+count] = SendTemp[i];
     576:	f7 01       	movw	r30, r14
     578:	ea 0f       	add	r30, r26
     57a:	fb 1f       	adc	r31, r27
     57c:	e6 0f       	add	r30, r22
     57e:	f7 1f       	adc	r31, r23
     580:	a0 0f       	add	r26, r16
     582:	b1 1f       	adc	r27, r17
     584:	8c 91       	ld	r24, X
     586:	80 83       	st	Z, r24
        count = 3;
        ModbusTemp[2] = (unsigned char)(Len & 0xFF);
    }else{
        count = 2;
    }
    for(i = 0;i < Len;i++){
     588:	2f 5f       	subi	r18, 0xFF	; 255
     58a:	a2 2f       	mov	r26, r18
     58c:	b0 e0       	ldi	r27, 0x00	; 0
     58e:	a4 17       	cp	r26, r20
     590:	b5 07       	cpc	r27, r21
     592:	88 f3       	brcs	.-30     	; 0x576 <SendDataToPC+0x42>
        ModbusTemp[i+count] = SendTemp[i];
    }
    RxCRC16 = CRC16(ModbusTemp, Len + count);
     594:	8b 01       	movw	r16, r22
     596:	04 0f       	add	r16, r20
     598:	15 1f       	adc	r17, r21
     59a:	c7 01       	movw	r24, r14
     59c:	b8 01       	movw	r22, r16
     59e:	f5 d5       	rcall	.+3050   	; 0x118a <CRC16>

    TX485();
     5a0:	92 9a       	sbi	0x12, 2	; 18
     5a2:	20 e0       	ldi	r18, 0x00	; 0

    for(i = 0;i < Len + count;i++){
        putchar(ModbusTemp[i]);
     5a4:	ae 01       	movw	r20, r28
     5a6:	4f 5f       	subi	r20, 0xFF	; 255
     5a8:	5f 4f       	sbci	r21, 0xFF	; 255
     5aa:	07 c0       	rjmp	.+14     	; 0x5ba <SendDataToPC+0x86>
     5ac:	e4 0f       	add	r30, r20
     5ae:	f5 1f       	adc	r31, r21
     5b0:	30 81       	ld	r19, Z
        (0<<USBS)|    /* Stop Bit 0:1-bit 1:2-bit */
        (3<<UCSZ0);    /* Data bit 0 ~ 7 : 5,6,7,8,-,-,-,9 */
}
void USART_Transmit(unsigned char data)
{
    while(!(UCSRA & (1<<UDRE)));
     5b2:	5d 9b       	sbis	0x0b, 5	; 11
     5b4:	fe cf       	rjmp	.-4      	; 0x5b2 <SendDataToPC+0x7e>
    UDR = data;
     5b6:	3c b9       	out	0x0c, r19	; 12
    }
    RxCRC16 = CRC16(ModbusTemp, Len + count);

    TX485();

    for(i = 0;i < Len + count;i++){
     5b8:	2f 5f       	subi	r18, 0xFF	; 255
     5ba:	e2 2f       	mov	r30, r18
     5bc:	f0 e0       	ldi	r31, 0x00	; 0
     5be:	e0 17       	cp	r30, r16
     5c0:	f1 07       	cpc	r31, r17
     5c2:	a0 f3       	brcs	.-24     	; 0x5ac <SendDataToPC+0x78>
        (0<<USBS)|    /* Stop Bit 0:1-bit 1:2-bit */
        (3<<UCSZ0);    /* Data bit 0 ~ 7 : 5,6,7,8,-,-,-,9 */
}
void USART_Transmit(unsigned char data)
{
    while(!(UCSRA & (1<<UDRE)));
     5c4:	5d 9b       	sbis	0x0b, 5	; 11
     5c6:	fe cf       	rjmp	.-4      	; 0x5c4 <SendDataToPC+0x90>
    UDR = data;
     5c8:	8c b9       	out	0x0c, r24	; 12
        (0<<USBS)|    /* Stop Bit 0:1-bit 1:2-bit */
        (3<<UCSZ0);    /* Data bit 0 ~ 7 : 5,6,7,8,-,-,-,9 */
}
void USART_Transmit(unsigned char data)
{
    while(!(UCSRA & (1<<UDRE)));
     5ca:	5d 9b       	sbis	0x0b, 5	; 11
     5cc:	fe cf       	rjmp	.-4      	; 0x5ca <SendDataToPC+0x96>
    UDR = data;
     5ce:	9c b9       	out	0x0c, r25	; 12
    milliseconds can be achieved.
 */
void
_delay_loop_2(uint16_t __count)
{
	__asm__ volatile (
     5d0:	80 e2       	ldi	r24, 0x20	; 32
     5d2:	9e e4       	ldi	r25, 0x4E	; 78
     5d4:	01 97       	sbiw	r24, 0x01	; 1
     5d6:	f1 f7       	brne	.-4      	; 0x5d4 <SendDataToPC+0xa0>
    
    putchar((unsigned char) (RxCRC16 & 0xFF));
    putchar((unsigned char) (RxCRC16 >> 8));
    
    _delay_ms(10);
    RX485();
     5d8:	92 98       	cbi	0x12, 2	; 18
#endif
}
     5da:	64 96       	adiw	r28, 0x14	; 20
     5dc:	0f b6       	in	r0, 0x3f	; 63
     5de:	f8 94       	cli
     5e0:	de bf       	out	0x3e, r29	; 62
     5e2:	0f be       	out	0x3f, r0	; 63
     5e4:	cd bf       	out	0x3d, r28	; 61
     5e6:	cf 91       	pop	r28
     5e8:	df 91       	pop	r29
     5ea:	1f 91       	pop	r17
     5ec:	0f 91       	pop	r16
     5ee:	ff 90       	pop	r15
     5f0:	ef 90       	pop	r14
     5f2:	08 95       	ret

000005f4 <ADCOutOne>:
             (0<<ADIE)|     /* ADC Interrupt Enable */
             (0<<ADPS1);    /* ADC Prescaler Select Bits */
#endif
}
unsigned int ADCOutOne(void)
{
     5f4:	ef 92       	push	r14
     5f6:	ff 92       	push	r15
     5f8:	0f 93       	push	r16
     5fa:	1f 93       	push	r17
    unsigned long sum = 0;

#ifdef ADC_ADS1110	
    #define ADC_COUNT 2
    for(i = 0;i < ADC_COUNT; i++){
        sum += ReadADS1110();
     5fc:	88 d6       	rcall	.+3344   	; 0x130e <ReadADS1110>
     5fe:	7c 01       	movw	r14, r24
     600:	86 d6       	rcall	.+3340   	; 0x130e <ReadADS1110>
     602:	00 e0       	ldi	r16, 0x00	; 0
     604:	10 e0       	ldi	r17, 0x00	; 0
     606:	a0 e0       	ldi	r26, 0x00	; 0
     608:	b0 e0       	ldi	r27, 0x00	; 0
     60a:	e8 0e       	add	r14, r24
     60c:	f9 1e       	adc	r15, r25
     60e:	0a 1f       	adc	r16, r26
     610:	1b 1f       	adc	r17, r27
     612:	16 95       	lsr	r17
     614:	07 95       	ror	r16
     616:	f7 94       	ror	r15
     618:	e7 94       	ror	r14
    }

    return sum>>6;//
#endif

}
     61a:	c7 01       	movw	r24, r14
     61c:	1f 91       	pop	r17
     61e:	0f 91       	pop	r16
     620:	ff 90       	pop	r15
     622:	ef 90       	pop	r14
     624:	08 95       	ret

00000626 <ADCOut>:
unsigned int ADCOut(void)
{
     626:	bf 92       	push	r11
     628:	cf 92       	push	r12
     62a:	df 92       	push	r13
     62c:	ef 92       	push	r14
     62e:	ff 92       	push	r15
     630:	0f 93       	push	r16
     632:	1f 93       	push	r17
     634:	cf 93       	push	r28
     636:	df 93       	push	r29
    unsigned int temp;
    unsigned int tempMAX = 0,tempMIN = 0;
    unsigned long SUM = 0;
    unsigned char i;
    
    tempMAX = ADCOutOne();
     638:	dd df       	rcall	.-70     	; 0x5f4 <ADCOutOne>
     63a:	6c 01       	movw	r12, r24
    tempMIN = ADCOutOne();
     63c:	db df       	rcall	.-74     	; 0x5f4 <ADCOutOne>
     63e:	ec 01       	movw	r28, r24
     640:	bb 24       	eor	r11, r11
     642:	ee 24       	eor	r14, r14
     644:	ff 24       	eor	r15, r15
     646:	87 01       	movw	r16, r14
    
    for(i = 0;i < 34;i++)
    {
        temp = ADCOutOne();
     648:	d5 df       	rcall	.-86     	; 0x5f4 <ADCOutOne>
     64a:	8c 17       	cp	r24, r28
     64c:	9d 07       	cpc	r25, r29
     64e:	08 f4       	brcc	.+2      	; 0x652 <ADCOut+0x2c>
     650:	ec 01       	movw	r28, r24
     652:	c8 16       	cp	r12, r24
     654:	d9 06       	cpc	r13, r25
     656:	08 f4       	brcc	.+2      	; 0x65a <ADCOut+0x34>
     658:	6c 01       	movw	r12, r24
	if(temp < tempMIN)
	    tempMIN = temp;
        if(temp > tempMAX)
	    tempMAX = temp;
	SUM = SUM + temp;
     65a:	a0 e0       	ldi	r26, 0x00	; 0
     65c:	b0 e0       	ldi	r27, 0x00	; 0
     65e:	e8 0e       	add	r14, r24
     660:	f9 1e       	adc	r15, r25
     662:	0a 1f       	adc	r16, r26
     664:	1b 1f       	adc	r17, r27
    unsigned char i;
    
    tempMAX = ADCOutOne();
    tempMIN = ADCOutOne();
    
    for(i = 0;i < 34;i++)
     666:	b3 94       	inc	r11
     668:	82 e2       	ldi	r24, 0x22	; 34
     66a:	b8 16       	cp	r11, r24
     66c:	69 f7       	brne	.-38     	; 0x648 <ADCOut+0x22>
	    tempMIN = temp;
        if(temp > tempMAX)
	    tempMAX = temp;
	SUM = SUM + temp;
    }
    SUM = SUM - tempMAX - tempMIN;
     66e:	c6 01       	movw	r24, r12
     670:	a0 e0       	ldi	r26, 0x00	; 0
     672:	b0 e0       	ldi	r27, 0x00	; 0
     674:	a8 01       	movw	r20, r16
     676:	97 01       	movw	r18, r14
     678:	28 1b       	sub	r18, r24
     67a:	39 0b       	sbc	r19, r25
     67c:	4a 0b       	sbc	r20, r26
     67e:	5b 0b       	sbc	r21, r27
     680:	ce 01       	movw	r24, r28
     682:	a0 e0       	ldi	r26, 0x00	; 0
     684:	b0 e0       	ldi	r27, 0x00	; 0
     686:	28 1b       	sub	r18, r24
     688:	39 0b       	sbc	r19, r25
     68a:	4a 0b       	sbc	r20, r26
     68c:	5b 0b       	sbc	r21, r27
     68e:	75 e0       	ldi	r23, 0x05	; 5
     690:	56 95       	lsr	r21
     692:	47 95       	ror	r20
     694:	37 95       	ror	r19
     696:	27 95       	ror	r18
     698:	7a 95       	dec	r23
     69a:	d1 f7       	brne	.-12     	; 0x690 <ADCOut+0x6a>
    temp = (unsigned int)(SUM>>5);
    return  temp;
}
     69c:	c9 01       	movw	r24, r18
     69e:	df 91       	pop	r29
     6a0:	cf 91       	pop	r28
     6a2:	1f 91       	pop	r17
     6a4:	0f 91       	pop	r16
     6a6:	ff 90       	pop	r15
     6a8:	ef 90       	pop	r14
     6aa:	df 90       	pop	r13
     6ac:	cf 90       	pop	r12
     6ae:	bf 90       	pop	r11
     6b0:	08 95       	ret

000006b2 <ChangeADCResult>:
unsigned int ChangeADCResult(void)
{
     6b2:	ef 92       	push	r14
     6b4:	ff 92       	push	r15
     6b6:	0f 93       	push	r16
     6b8:	1f 93       	push	r17
    long temp;

    ADCResult = ADCOut();
     6ba:	b5 df       	rcall	.-150    	; 0x626 <ADCOut>
     6bc:	90 93 99 00 	sts	0x0099, r25
     6c0:	80 93 98 00 	sts	0x0098, r24
    ADCResult += ADJ_ZERO;
     6c4:	80 91 98 00 	lds	r24, 0x0098
     6c8:	90 91 99 00 	lds	r25, 0x0099
     6cc:	20 91 a3 00 	lds	r18, 0x00A3
     6d0:	30 91 a4 00 	lds	r19, 0x00A4
     6d4:	82 0f       	add	r24, r18
     6d6:	93 1f       	adc	r25, r19
     6d8:	90 93 99 00 	sts	0x0099, r25
     6dc:	80 93 98 00 	sts	0x0098, r24
    temp = ((long) ADCResult * (long)(VALUE_MAX - VALUE_MIN)) /(long)ADC_JINGDU + VALUE_MIN ;
     6e0:	20 91 98 00 	lds	r18, 0x0098
     6e4:	30 91 99 00 	lds	r19, 0x0099
     6e8:	60 91 dc 00 	lds	r22, 0x00DC
     6ec:	70 91 dd 00 	lds	r23, 0x00DD
     6f0:	e0 91 de 00 	lds	r30, 0x00DE
     6f4:	f0 91 df 00 	lds	r31, 0x00DF
     6f8:	e0 90 de 00 	lds	r14, 0x00DE
     6fc:	f0 90 df 00 	lds	r15, 0x00DF
    ADCResult = (unsigned int) temp;
     700:	6e 1b       	sub	r22, r30
     702:	7f 0b       	sbc	r23, r31
     704:	80 e0       	ldi	r24, 0x00	; 0
     706:	90 e0       	ldi	r25, 0x00	; 0
     708:	40 e0       	ldi	r20, 0x00	; 0
     70a:	50 e0       	ldi	r21, 0x00	; 0
     70c:	8e d6       	rcall	.+3356   	; 0x142a <__mulsi3>
     70e:	ef e0       	ldi	r30, 0x0F	; 15
     710:	95 95       	asr	r25
     712:	87 95       	ror	r24
     714:	77 95       	ror	r23
     716:	67 95       	ror	r22
     718:	ea 95       	dec	r30
     71a:	d1 f7       	brne	.-12     	; 0x710 <ChangeADCResult+0x5e>
     71c:	00 e0       	ldi	r16, 0x00	; 0
     71e:	10 e0       	ldi	r17, 0x00	; 0
     720:	e6 0e       	add	r14, r22
     722:	f7 1e       	adc	r15, r23
     724:	08 1f       	adc	r16, r24
     726:	19 1f       	adc	r17, r25
     728:	f0 92 99 00 	sts	0x0099, r15
     72c:	e0 92 98 00 	sts	0x0098, r14

    return ADCResult;
     730:	20 91 98 00 	lds	r18, 0x0098
     734:	30 91 99 00 	lds	r19, 0x0099
}
     738:	c9 01       	movw	r24, r18
     73a:	1f 91       	pop	r17
     73c:	0f 91       	pop	r16
     73e:	ff 90       	pop	r15
     740:	ef 90       	pop	r14
     742:	08 95       	ret

00000744 <RefreshLED>:
void RefreshLED(void)
{
    unsigned int T_C_temp;
    T_C_temp = ChangeADCResult();
     744:	b6 df       	rcall	.-148    	; 0x6b2 <ChangeADCResult>
     746:	9c 01       	movw	r18, r24
    if(T_C > T_C_temp){
     748:	80 91 da 00 	lds	r24, 0x00DA
     74c:	90 91 db 00 	lds	r25, 0x00DB
     750:	28 17       	cp	r18, r24
     752:	39 07       	cpc	r19, r25
     754:	38 f4       	brcc	.+14     	; 0x764 <RefreshLED+0x20>
        if( (T_C - T_C_temp) > 2 )
     756:	80 91 da 00 	lds	r24, 0x00DA
     75a:	90 91 db 00 	lds	r25, 0x00DB
     75e:	82 1b       	sub	r24, r18
     760:	93 0b       	sbc	r25, r19
     762:	08 c0       	rjmp	.+16     	; 0x774 <RefreshLED+0x30>
	{
            T_C = T_C_temp;
    	    Display10(T_C_temp);
	}
    } else {
        if( (T_C_temp - T_C) > 2 )
     764:	80 91 da 00 	lds	r24, 0x00DA
     768:	90 91 db 00 	lds	r25, 0x00DB
     76c:	a9 01       	movw	r20, r18
     76e:	48 1b       	sub	r20, r24
     770:	59 0b       	sbc	r21, r25
     772:	ca 01       	movw	r24, r20
     774:	03 97       	sbiw	r24, 0x03	; 3
     776:	30 f0       	brcs	.+12     	; 0x784 <RefreshLED+0x40>
	{
            T_C = T_C_temp;
     778:	30 93 db 00 	sts	0x00DB, r19
     77c:	20 93 da 00 	sts	0x00DA, r18
    	    Display10(T_C_temp);
     780:	c9 01       	movw	r24, r18
     782:	82 d4       	rcall	.+2308   	; 0x1088 <Display10>
	}
    }
#ifdef TIMERDELAY
    if(TimerOver != 0)
     784:	80 91 d7 00 	lds	r24, 0x00D7
     788:	88 23       	and	r24, r24
     78a:	09 f1       	breq	.+66     	; 0x7ce <RefreshLED+0x8a>
    {
        /* change T_C value 1S */
        T_C = ChangeADCResult();
     78c:	92 df       	rcall	.-220    	; 0x6b2 <ChangeADCResult>
     78e:	90 93 db 00 	sts	0x00DB, r25
     792:	80 93 da 00 	sts	0x00DA, r24
        Display10(T_C);
     796:	80 91 da 00 	lds	r24, 0x00DA
     79a:	90 91 db 00 	lds	r25, 0x00DB
     79e:	74 d4       	rcall	.+2280   	; 0x1088 <Display10>
        /*  */
        TimerOver = 0;
     7a0:	10 92 d7 00 	sts	0x00D7, r1
        TimerDelayMs(1000);
     7a4:	88 ee       	ldi	r24, 0xE8	; 232
     7a6:	93 e0       	ldi	r25, 0x03	; 3
     7a8:	a5 dc       	rcall	.-1718   	; 0xf4 <TimerDelayMs>
	/* D2 LED 1S flicker */
        PORTD ^= (1<<7);
     7aa:	82 b3       	in	r24, 0x12	; 18
     7ac:	80 58       	subi	r24, 0x80	; 128
     7ae:	82 bb       	out	0x12, r24	; 18
	if(ErrFlag !=0)
     7b0:	80 91 d5 00 	lds	r24, 0x00D5
     7b4:	90 91 d6 00 	lds	r25, 0x00D6
     7b8:	89 2b       	or	r24, r25
     7ba:	49 f0       	breq	.+18     	; 0x7ce <RefreshLED+0x8a>
            ErrFlag ++;
     7bc:	80 91 d5 00 	lds	r24, 0x00D5
     7c0:	90 91 d6 00 	lds	r25, 0x00D6
     7c4:	01 96       	adiw	r24, 0x01	; 1
     7c6:	90 93 d6 00 	sts	0x00D6, r25
     7ca:	80 93 d5 00 	sts	0x00D5, r24
     7ce:	08 95       	ret

000007d0 <ADCInit>:
}
/* ********************************************************************** */
void ADCInit(void)
{
#ifdef ADC_ADS1110	
     Init_ADS1110();
     7d0:	99 d5       	rcall	.+2866   	; 0x1304 <Init_ADS1110>
             (0<<ADFR)|     /* ADC Free Running Select */
             (0<<ADIF)|     /* ADC Interrupt Flag ,1:clear */
             (0<<ADIE)|     /* ADC Interrupt Enable */
             (0<<ADPS1);    /* ADC Prescaler Select Bits */
#endif
}
     7d2:	08 95       	ret

000007d4 <WRITE_BYTE_EEP>:
static unsigned int  ADJ_ZERO;
/* ********************************************************************** */
unsigned int READ_WORD_EEP(unsigned int * addr) {eeprom_busy_wait();return eeprom_read_word(addr);}
void WRITE_WORD_EEP(unsigned int x,unsigned int * addr) {eeprom_busy_wait();eeprom_write_word(addr,x);}
unsigned char READ_BYTE_EEP(unsigned char * addr) {eeprom_busy_wait();return eeprom_read_byte(addr);}
void WRITE_BYTE_EEP(unsigned char x,unsigned char * addr) {eeprom_busy_wait();eeprom_write_byte(addr,x);}
     7d4:	28 2f       	mov	r18, r24
     7d6:	e1 99       	sbic	0x1c, 1	; 28
     7d8:	fe cf       	rjmp	.-4      	; 0x7d6 <WRITE_BYTE_EEP+0x2>
     7da:	cb 01       	movw	r24, r22
     7dc:	62 2f       	mov	r22, r18
     7de:	a2 d6       	rcall	.+3396   	; 0x1524 <__eewr_byte_m8>
     7e0:	08 95       	ret

000007e2 <READ_BYTE_EEP>:
static unsigned char MEASURE_MODE;
static unsigned int  ADJ_ZERO;
/* ********************************************************************** */
unsigned int READ_WORD_EEP(unsigned int * addr) {eeprom_busy_wait();return eeprom_read_word(addr);}
void WRITE_WORD_EEP(unsigned int x,unsigned int * addr) {eeprom_busy_wait();eeprom_write_word(addr,x);}
unsigned char READ_BYTE_EEP(unsigned char * addr) {eeprom_busy_wait();return eeprom_read_byte(addr);}
     7e2:	e1 99       	sbic	0x1c, 1	; 28
     7e4:	fe cf       	rjmp	.-4      	; 0x7e2 <READ_BYTE_EEP>
     7e6:	91 d6       	rcall	.+3362   	; 0x150a <__eerd_byte_m8>
     7e8:	08 95       	ret

000007ea <WRITE_WORD_EEP>:
#endif
static unsigned char MEASURE_MODE;
static unsigned int  ADJ_ZERO;
/* ********************************************************************** */
unsigned int READ_WORD_EEP(unsigned int * addr) {eeprom_busy_wait();return eeprom_read_word(addr);}
void WRITE_WORD_EEP(unsigned int x,unsigned int * addr) {eeprom_busy_wait();eeprom_write_word(addr,x);}
     7ea:	9c 01       	movw	r18, r24
     7ec:	e1 99       	sbic	0x1c, 1	; 28
     7ee:	fe cf       	rjmp	.-4      	; 0x7ec <WRITE_WORD_EEP+0x2>
     7f0:	cb 01       	movw	r24, r22
     7f2:	b9 01       	movw	r22, r18
     7f4:	a4 d6       	rcall	.+3400   	; 0x153e <__eewr_word_m8>
     7f6:	08 95       	ret

000007f8 <READ_WORD_EEP>:
static unsigned int  * pADJ_ZERO;
#endif
static unsigned char MEASURE_MODE;
static unsigned int  ADJ_ZERO;
/* ********************************************************************** */
unsigned int READ_WORD_EEP(unsigned int * addr) {eeprom_busy_wait();return eeprom_read_word(addr);}
     7f8:	e1 99       	sbic	0x1c, 1	; 28
     7fa:	fe cf       	rjmp	.-4      	; 0x7f8 <READ_WORD_EEP>
     7fc:	8e d6       	rcall	.+3356   	; 0x151a <__eerd_word_m8>
     7fe:	08 95       	ret

00000800 <SystemInit>:
    VALUE_MAX   = DEF_VALUE_MAX(I_RangeMAX,I_RangeMIN);
    VALUE_MIN   = DEF_VALUE_MIN(I_RangeMAX,I_RangeMIN);
    XiaoShuDian = I_DEF_XiaoShuDian;
    ADJ_ZERO    = 0;
#else
    MEASURE_MODE = READ_BYTE_EEP(&MEASURE_MODE_EEP);
     800:	81 e0       	ldi	r24, 0x01	; 1
     802:	90 e0       	ldi	r25, 0x00	; 0
     804:	ee df       	rcall	.-36     	; 0x7e2 <READ_BYTE_EEP>
    MEASURE_MODE ++;
     806:	8f 5f       	subi	r24, 0xFF	; 255
     808:	80 93 a2 00 	sts	0x00A2, r24
    if(MEASURE_MODE>3)
     80c:	84 30       	cpi	r24, 0x04	; 4
     80e:	10 f0       	brcs	.+4      	; 0x814 <SystemInit+0x14>
        MEASURE_MODE = 0;
     810:	10 92 a2 00 	sts	0x00A2, r1
    DeviceAddr   = READ_BYTE_EEP(&ADDR_EEP);
     814:	80 e0       	ldi	r24, 0x00	; 0
     816:	90 e0       	ldi	r25, 0x00	; 0
     818:	e4 df       	rcall	.-56     	; 0x7e2 <READ_BYTE_EEP>
     81a:	80 93 e2 00 	sts	0x00E2, r24

    switch(MEASURE_MODE){
     81e:	80 91 a2 00 	lds	r24, 0x00A2
     822:	81 30       	cpi	r24, 0x01	; 1
     824:	e9 f0       	breq	.+58     	; 0x860 <SystemInit+0x60>
     826:	81 30       	cpi	r24, 0x01	; 1
     828:	30 f0       	brcs	.+12     	; 0x836 <SystemInit+0x36>
     82a:	82 30       	cpi	r24, 0x02	; 2
     82c:	91 f1       	breq	.+100    	; 0x892 <SystemInit+0x92>
     82e:	83 30       	cpi	r24, 0x03	; 3
     830:	09 f0       	breq	.+2      	; 0x834 <SystemInit+0x34>
     832:	59 c0       	rjmp	.+178    	; 0x8e6 <SystemInit+0xe6>
     834:	43 c0       	rjmp	.+134    	; 0x8bc <SystemInit+0xbc>
    case 0:
	pMAX_EEP = &I_MAX_EEP;
     836:	82 e0       	ldi	r24, 0x02	; 2
     838:	90 e0       	ldi	r25, 0x00	; 0
     83a:	90 93 9b 00 	sts	0x009B, r25
     83e:	80 93 9a 00 	sts	0x009A, r24
	pMIN_EEP = &I_MIN_EEP;
     842:	84 e0       	ldi	r24, 0x04	; 4
     844:	90 e0       	ldi	r25, 0x00	; 0
     846:	90 93 9d 00 	sts	0x009D, r25
     84a:	80 93 9c 00 	sts	0x009C, r24
	pXSD_EEP = &I_XSD_EEP;
     84e:	86 e0       	ldi	r24, 0x06	; 6
     850:	90 e0       	ldi	r25, 0x00	; 0
     852:	90 93 9f 00 	sts	0x009F, r25
     856:	80 93 9e 00 	sts	0x009E, r24
        pADJ_ZERO = &I_ZERO_EEP;
     85a:	87 e0       	ldi	r24, 0x07	; 7
     85c:	90 e0       	ldi	r25, 0x00	; 0
     85e:	14 c0       	rjmp	.+40     	; 0x888 <SystemInit+0x88>
	break;
    case 1:
	pMAX_EEP = &T_MAX_EEP;
     860:	89 e0       	ldi	r24, 0x09	; 9
     862:	90 e0       	ldi	r25, 0x00	; 0
     864:	90 93 9b 00 	sts	0x009B, r25
     868:	80 93 9a 00 	sts	0x009A, r24
	pMIN_EEP = &T_MIN_EEP;
     86c:	8b e0       	ldi	r24, 0x0B	; 11
     86e:	90 e0       	ldi	r25, 0x00	; 0
     870:	90 93 9d 00 	sts	0x009D, r25
     874:	80 93 9c 00 	sts	0x009C, r24
	pXSD_EEP = &T_XSD_EEP;
     878:	8d e0       	ldi	r24, 0x0D	; 13
     87a:	90 e0       	ldi	r25, 0x00	; 0
     87c:	90 93 9f 00 	sts	0x009F, r25
     880:	80 93 9e 00 	sts	0x009E, r24
        pADJ_ZERO = &T_ZERO_EEP;
     884:	8e e0       	ldi	r24, 0x0E	; 14
     886:	90 e0       	ldi	r25, 0x00	; 0
     888:	90 93 a1 00 	sts	0x00A1, r25
     88c:	80 93 a0 00 	sts	0x00A0, r24
     890:	2c c0       	rjmp	.+88     	; 0x8ea <SystemInit+0xea>
	break;
    case 2:
	pMAX_EEP = &Y_MAX_EEP;
     892:	80 e1       	ldi	r24, 0x10	; 16
     894:	90 e0       	ldi	r25, 0x00	; 0
     896:	90 93 9b 00 	sts	0x009B, r25
     89a:	80 93 9a 00 	sts	0x009A, r24
	pMIN_EEP = &Y_MIN_EEP;
     89e:	82 e1       	ldi	r24, 0x12	; 18
     8a0:	90 e0       	ldi	r25, 0x00	; 0
     8a2:	90 93 9d 00 	sts	0x009D, r25
     8a6:	80 93 9c 00 	sts	0x009C, r24
	pXSD_EEP = &Y_XSD_EEP;
     8aa:	84 e1       	ldi	r24, 0x14	; 20
     8ac:	90 e0       	ldi	r25, 0x00	; 0
     8ae:	90 93 9f 00 	sts	0x009F, r25
     8b2:	80 93 9e 00 	sts	0x009E, r24
	pADJ_ZERO = &Y_ZERO_EEP;
     8b6:	85 e1       	ldi	r24, 0x15	; 21
     8b8:	90 e0       	ldi	r25, 0x00	; 0
     8ba:	e6 cf       	rjmp	.-52     	; 0x888 <SystemInit+0x88>
	break;
    case 3:
	pMAX_EEP = &L_MAX_EEP;
     8bc:	87 e1       	ldi	r24, 0x17	; 23
     8be:	90 e0       	ldi	r25, 0x00	; 0
     8c0:	90 93 9b 00 	sts	0x009B, r25
     8c4:	80 93 9a 00 	sts	0x009A, r24
	pMIN_EEP = &L_MIN_EEP;
     8c8:	89 e1       	ldi	r24, 0x19	; 25
     8ca:	90 e0       	ldi	r25, 0x00	; 0
     8cc:	90 93 9d 00 	sts	0x009D, r25
     8d0:	80 93 9c 00 	sts	0x009C, r24
	pXSD_EEP = &L_XSD_EEP;
     8d4:	8b e1       	ldi	r24, 0x1B	; 27
     8d6:	90 e0       	ldi	r25, 0x00	; 0
     8d8:	90 93 9f 00 	sts	0x009F, r25
     8dc:	80 93 9e 00 	sts	0x009E, r24
	pADJ_ZERO = &L_ZERO_EEP;
     8e0:	8c e1       	ldi	r24, 0x1C	; 28
     8e2:	90 e0       	ldi	r25, 0x00	; 0
     8e4:	d1 cf       	rjmp	.-94     	; 0x888 <SystemInit+0x88>
	break;
    default:
	MEASURE_MODE = 0;
     8e6:	10 92 a2 00 	sts	0x00A2, r1
        break;
    }
    WRITE_BYTE_EEP(MEASURE_MODE,&MEASURE_MODE_EEP);
     8ea:	80 91 a2 00 	lds	r24, 0x00A2
     8ee:	61 e0       	ldi	r22, 0x01	; 1
     8f0:	70 e0       	ldi	r23, 0x00	; 0
     8f2:	70 df       	rcall	.-288    	; 0x7d4 <WRITE_BYTE_EEP>

    VALUE_MAX   = READ_WORD_EEP(pMAX_EEP);
     8f4:	80 91 9a 00 	lds	r24, 0x009A
     8f8:	90 91 9b 00 	lds	r25, 0x009B
     8fc:	7d df       	rcall	.-262    	; 0x7f8 <READ_WORD_EEP>
     8fe:	90 93 dd 00 	sts	0x00DD, r25
     902:	80 93 dc 00 	sts	0x00DC, r24
    VALUE_MIN   = READ_WORD_EEP(pMIN_EEP);
     906:	80 91 9c 00 	lds	r24, 0x009C
     90a:	90 91 9d 00 	lds	r25, 0x009D
     90e:	74 df       	rcall	.-280    	; 0x7f8 <READ_WORD_EEP>
     910:	90 93 df 00 	sts	0x00DF, r25
     914:	80 93 de 00 	sts	0x00DE, r24
    XiaoShuDian = READ_BYTE_EEP(pXSD_EEP);
     918:	80 91 9e 00 	lds	r24, 0x009E
     91c:	90 91 9f 00 	lds	r25, 0x009F
     920:	60 df       	rcall	.-320    	; 0x7e2 <READ_BYTE_EEP>
     922:	80 93 be 00 	sts	0x00BE, r24
    ADJ_ZERO    = READ_WORD_EEP(pADJ_ZERO);
     926:	80 91 a0 00 	lds	r24, 0x00A0
     92a:	90 91 a1 00 	lds	r25, 0x00A1
     92e:	64 df       	rcall	.-312    	; 0x7f8 <READ_WORD_EEP>
     930:	90 93 a4 00 	sts	0x00A4, r25
     934:	80 93 a3 00 	sts	0x00A3, r24
#endif    
//IO Direction
    DDRC = 0x0F;
     938:	8f e0       	ldi	r24, 0x0F	; 15
     93a:	84 bb       	out	0x14, r24	; 20
    DDRB = 0x07;
     93c:	87 e0       	ldi	r24, 0x07	; 7
     93e:	87 bb       	out	0x17, r24	; 23
    DDRD = 0xFE;
     940:	8e ef       	ldi	r24, 0xFE	; 254
     942:	81 bb       	out	0x11, r24	; 17
//enable interrupt 
    sei();
     944:	78 94       	sei
//Display Open
    OpenDisplayLED();
     946:	6a d3       	rcall	.+1748   	; 0x101c <OpenDisplayLED>
//485 enabile
    RX485();
     948:	92 98       	cbi	0x12, 2	; 18
//Open Uart
    USART_Init(UartBaud);
     94a:	80 e8       	ldi	r24, 0x80	; 128
     94c:	95 e2       	ldi	r25, 0x25	; 37
     94e:	51 dc       	rcall	.-1886   	; 0x1f2 <USART_Init>
//Set Timer2 clk
    /* clock select clk/128 */
    TCCR2 = Timer2ClkSel;
     950:	85 e0       	ldi	r24, 0x05	; 5
     952:	85 bd       	out	0x25, r24	; 37
}
/* ********************************************************************** */
void ADCInit(void)
{
#ifdef ADC_ADS1110	
     Init_ADS1110();
     954:	d7 d4       	rcall	.+2478   	; 0x1304 <Init_ADS1110>
    /* clock select clk/128 */
    TCCR2 = Timer2ClkSel;
//Enable ADC
    ADCInit();
//Enable watchdog
    wdt_enable(WDTO_1S);
     956:	2e e0       	ldi	r18, 0x0E	; 14
     958:	88 e1       	ldi	r24, 0x18	; 24
     95a:	90 e0       	ldi	r25, 0x00	; 0
     95c:	0f b6       	in	r0, 0x3f	; 63
     95e:	f8 94       	cli
     960:	a8 95       	wdr
     962:	81 bd       	out	0x21, r24	; 33
     964:	0f be       	out	0x3f, r0	; 63
     966:	21 bd       	out	0x21, r18	; 33
//
#ifdef TIMERDELAY
    TimerOver = 0;
     968:	10 92 d7 00 	sts	0x00D7, r1
    TimerDelayMs(1000);
     96c:	88 ee       	ldi	r24, 0xE8	; 232
     96e:	93 e0       	ldi	r25, 0x03	; 3
     970:	c1 db       	rcall	.-2174   	; 0xf4 <TimerDelayMs>
#endif

}
     972:	08 95       	ret

00000974 <main>:

int main(void)
{
     974:	2f 92       	push	r2
     976:	3f 92       	push	r3
     978:	4f 92       	push	r4
     97a:	5f 92       	push	r5
     97c:	6f 92       	push	r6
     97e:	7f 92       	push	r7
     980:	8f 92       	push	r8
     982:	9f 92       	push	r9
     984:	af 92       	push	r10
     986:	bf 92       	push	r11
     988:	cf 92       	push	r12
     98a:	df 92       	push	r13
     98c:	ef 92       	push	r14
     98e:	ff 92       	push	r15
     990:	0f 93       	push	r16
     992:	1f 93       	push	r17
     994:	df 93       	push	r29
     996:	cf 93       	push	r28
     998:	cd b7       	in	r28, 0x3d	; 61
     99a:	de b7       	in	r29, 0x3e	; 62
     99c:	2b 97       	sbiw	r28, 0x0b	; 11
     99e:	0f b6       	in	r0, 0x3f	; 63
     9a0:	f8 94       	cli
     9a2:	de bf       	out	0x3e, r29	; 62
     9a4:	0f be       	out	0x3f, r0	; 63
     9a6:	cd bf       	out	0x3d, r28	; 61
    long tempB = 0;
    unsigned char CRCYesOrNo;
    unsigned char tempch;
    //unsigned int i = 0;
    /* 0:wait receive frame 1:receive frame finish */
    RxFrameComplete = 0;
     9a8:	10 92 95 00 	sts	0x0095, r1
    /* Init Receive status mode*/
    RxMode = 0;
     9ac:	10 92 94 00 	sts	0x0094, r1
    /* Error Flag clear */
    ErrFlag = 0;
     9b0:	10 92 d6 00 	sts	0x00D6, r1
     9b4:	10 92 d5 00 	sts	0x00D5, r1
    /* System init */
    SystemInit();
     9b8:	23 df       	rcall	.-442    	; 0x800 <SystemInit>
    //RxOverrunTimer();
    ID.L = 0;
     9ba:	10 92 b1 00 	sts	0x00B1, r1
     9be:	10 92 b2 00 	sts	0x00B2, r1
     9c2:	10 92 b3 00 	sts	0x00B3, r1
     9c6:	10 92 b4 00 	sts	0x00B4, r1
    ID.L = READ_WORD_EEP(&ID0_EEP);
     9ca:	8e e1       	ldi	r24, 0x1E	; 30
     9cc:	90 e0       	ldi	r25, 0x00	; 0
     9ce:	14 df       	rcall	.-472    	; 0x7f8 <READ_WORD_EEP>
    ID.L <<=16;
     9d0:	7c 01       	movw	r14, r24
     9d2:	00 e0       	ldi	r16, 0x00	; 0
     9d4:	10 e0       	ldi	r17, 0x00	; 0
     9d6:	87 01       	movw	r16, r14
     9d8:	ff 24       	eor	r15, r15
     9da:	ee 24       	eor	r14, r14
     9dc:	e0 92 b1 00 	sts	0x00B1, r14
     9e0:	f0 92 b2 00 	sts	0x00B2, r15
     9e4:	00 93 b3 00 	sts	0x00B3, r16
     9e8:	10 93 b4 00 	sts	0x00B4, r17
    ID.L += READ_WORD_EEP(&ID1_EEP);
     9ec:	80 e2       	ldi	r24, 0x20	; 32
     9ee:	90 e0       	ldi	r25, 0x00	; 0
     9f0:	03 df       	rcall	.-506    	; 0x7f8 <READ_WORD_EEP>
     9f2:	a0 e0       	ldi	r26, 0x00	; 0
     9f4:	b0 e0       	ldi	r27, 0x00	; 0
     9f6:	e8 0e       	add	r14, r24
     9f8:	f9 1e       	adc	r15, r25
     9fa:	0a 1f       	adc	r16, r26
     9fc:	1b 1f       	adc	r17, r27
     9fe:	e0 92 b1 00 	sts	0x00B1, r14
     a02:	f0 92 b2 00 	sts	0x00B2, r15
     a06:	00 93 b3 00 	sts	0x00B3, r16
     a0a:	10 93 b4 00 	sts	0x00B4, r17
#ifndef MYDEBUG
    ErrCodeDisplay = MEASURE_MODE + 0xD000;
     a0e:	80 91 a2 00 	lds	r24, 0x00A2
     a12:	90 e0       	ldi	r25, 0x00	; 0
     a14:	80 50       	subi	r24, 0x00	; 0
     a16:	90 43       	sbci	r25, 0x30	; 48
     a18:	90 93 e1 00 	sts	0x00E1, r25
     a1c:	80 93 e0 00 	sts	0x00E0, r24
    DisplayHex(ErrCodeDisplay);
     a20:	80 91 e0 00 	lds	r24, 0x00E0
     a24:	90 91 e1 00 	lds	r25, 0x00E1
     a28:	04 d3       	rcall	.+1544   	; 0x1032 <DisplayHex>
     a2a:	20 e0       	ldi	r18, 0x00	; 0
     a2c:	30 e0       	ldi	r19, 0x00	; 0
     a2e:	48 ec       	ldi	r20, 0xC8	; 200
     a30:	50 e0       	ldi	r21, 0x00	; 0
     a32:	0b c0       	rjmp	.+22     	; 0xa4a <main+0xd6>
     a34:	fa 01       	movw	r30, r20
     a36:	31 97       	sbiw	r30, 0x01	; 1
     a38:	f1 f7       	brne	.-4      	; 0xa36 <main+0xc2>
		__ticks = (uint16_t) (__ms * 10.0);
		while(__ticks)
		{
			// wait 1/10 ms
			_delay_loop_2(((F_CPU) / 4e3) / 10);
			__ticks --;
     a3a:	01 97       	sbiw	r24, 0x01	; 1
		__ticks = 1;
	else if (__tmp > 65535)
	{
		//	__ticks = requested delay in 1/10 ms
		__ticks = (uint16_t) (__ms * 10.0);
		while(__ticks)
     a3c:	d9 f7       	brne	.-10     	; 0xa34 <main+0xc0>
    for(tempint = 0;tempint < 10;tempint ++)
    {
        _delay_ms(200);
        wdt_reset();
     a3e:	a8 95       	wdr
    ID.L <<=16;
    ID.L += READ_WORD_EEP(&ID1_EEP);
#ifndef MYDEBUG
    ErrCodeDisplay = MEASURE_MODE + 0xD000;
    DisplayHex(ErrCodeDisplay);
    for(tempint = 0;tempint < 10;tempint ++)
     a40:	2f 5f       	subi	r18, 0xFF	; 255
     a42:	3f 4f       	sbci	r19, 0xFF	; 255
     a44:	2a 30       	cpi	r18, 0x0A	; 10
     a46:	31 05       	cpc	r19, r1
     a48:	19 f0       	breq	.+6      	; 0xa50 <main+0xdc>
     a4a:	80 ed       	ldi	r24, 0xD0	; 208
     a4c:	97 e0       	ldi	r25, 0x07	; 7
     a4e:	f2 cf       	rjmp	.-28     	; 0xa34 <main+0xc0>
                        //SendTemp[0] = XiaoShuDian;
                        SendTemp[0] = RxFrame.Data[0];
                        SendTemp[1] = RxFrame.Data[1];
                        SendTemp[2] = 0x00;
                        SendTemp[3] = XiaoShuDian;
                        SendDataToPC(SET_DEVICEADDR | CRCYesOrNo, SendTemp , 4);
     a50:	4e 01       	movw	r8, r28
     a52:	08 94       	sec
     a54:	81 1c       	adc	r8, r1
     a56:	91 1c       	adc	r9, r1
}
void ErrorDisplay(unsigned int ErrCode)
{
    ErrFlag = 1;
    ErrCode &= 0x0FFF;
    ErrCodeDisplay = ErrCode | 0xE000;
     a58:	a5 e0       	ldi	r26, 0x05	; 5
     a5a:	4a 2e       	mov	r4, r26
     a5c:	a0 ee       	ldi	r26, 0xE0	; 224
     a5e:	5a 2e       	mov	r5, r26
        wdt_reset();
    }
#endif
    while(1)
    {
        if(!RxFrameComplete)
     a60:	f2 e0       	ldi	r31, 0x02	; 2
     a62:	2f 2e       	mov	r2, r31
     a64:	f0 ee       	ldi	r31, 0xE0	; 224
     a66:	3f 2e       	mov	r3, r31
     a68:	80 91 95 00 	lds	r24, 0x0095
     a6c:	88 23       	and	r24, r24
     a6e:	21 f4       	brne	.+8      	; 0xa78 <main+0x104>
        {
            //if(ErrFlag == 0)
            RefreshLED();
     a70:	69 de       	rcall	.-814    	; 0x744 <RefreshLED>
            IsErrorOrNot();
     a72:	02 dd       	rcall	.-1532   	; 0x478 <IsErrorOrNot>
            wdt_reset();
     a74:	a8 95       	wdr
     a76:	f8 cf       	rjmp	.-16     	; 0xa68 <main+0xf4>
            continue;
        }

        /* clear receive finish flag */
        RxFrameComplete = 0;
     a78:	10 92 95 00 	sts	0x0095, r1
        /* Judge Addr is OK */
        if(RxFrame.Addr != DeviceAddr)
     a7c:	90 91 b6 00 	lds	r25, 0x00B6
     a80:	80 91 e2 00 	lds	r24, 0x00E2
     a84:	98 17       	cp	r25, r24
     a86:	09 f4       	brne	.+2      	; 0xa8a <main+0x116>
     a88:	40 c0       	rjmp	.+128    	; 0xb0a <main+0x196>
        {
            if(RxFrame.Addr != 0xFE){
     a8a:	80 91 b6 00 	lds	r24, 0x00B6
     a8e:	8e 3f       	cpi	r24, 0xFE	; 254
     a90:	59 f7       	brne	.-42     	; 0xa68 <main+0xf4>
                continue;
            }
            if(RxFrame.FunCode != 0x88){
     a92:	80 91 b7 00 	lds	r24, 0x00B7
     a96:	88 38       	cpi	r24, 0x88	; 136
     a98:	39 f7       	brne	.-50     	; 0xa68 <main+0xf4>
                continue;
            }
            if(RxFrame.Data[0] == 'B' &&
     a9a:	e0 91 b8 00 	lds	r30, 0x00B8
     a9e:	f0 91 b9 00 	lds	r31, 0x00B9
     aa2:	80 81       	ld	r24, Z
     aa4:	82 34       	cpi	r24, 0x42	; 66
     aa6:	31 f5       	brne	.+76     	; 0xaf4 <main+0x180>
     aa8:	e0 91 b8 00 	lds	r30, 0x00B8
     aac:	f0 91 b9 00 	lds	r31, 0x00B9
     ab0:	81 81       	ldd	r24, Z+1	; 0x01
     ab2:	8f 36       	cpi	r24, 0x6F	; 111
     ab4:	f9 f4       	brne	.+62     	; 0xaf4 <main+0x180>
     ab6:	e0 91 b8 00 	lds	r30, 0x00B8
     aba:	f0 91 b9 00 	lds	r31, 0x00B9
     abe:	82 81       	ldd	r24, Z+2	; 0x02
     ac0:	83 37       	cpi	r24, 0x73	; 115
     ac2:	c1 f4       	brne	.+48     	; 0xaf4 <main+0x180>
     ac4:	e0 91 b8 00 	lds	r30, 0x00B8
     ac8:	f0 91 b9 00 	lds	r31, 0x00B9
     acc:	83 81       	ldd	r24, Z+3	; 0x03
     ace:	83 37       	cpi	r24, 0x73	; 115
     ad0:	89 f4       	brne	.+34     	; 0xaf4 <main+0x180>
     ad2:	e0 91 b8 00 	lds	r30, 0x00B8
     ad6:	f0 91 b9 00 	lds	r31, 0x00B9
     ada:	84 81       	ldd	r24, Z+4	; 0x04
     adc:	85 37       	cpi	r24, 0x75	; 117
     ade:	51 f4       	brne	.+20     	; 0xaf4 <main+0x180>
     ae0:	e0 91 b8 00 	lds	r30, 0x00B8
     ae4:	f0 91 b9 00 	lds	r31, 0x00B9
     ae8:	85 81       	ldd	r24, Z+5	; 0x05
     aea:	8e 34       	cpi	r24, 0x4E	; 78
     aec:	19 f4       	brne	.+6      	; 0xaf4 <main+0x180>
               RxFrame.Data[1] == 'o' &&
               RxFrame.Data[2] == 's' &&
               RxFrame.Data[3] == 's' &&
               RxFrame.Data[4] == 'u' &&
               RxFrame.Data[5] == 'N')
            SendTemp[0] = ID.ch[3];
     aee:	80 91 b4 00 	lds	r24, 0x00B4
     af2:	89 83       	std	Y+1, r24	; 0x01
            SendTemp[1] = ID.ch[2];
     af4:	80 91 b3 00 	lds	r24, 0x00B3
     af8:	8a 83       	std	Y+2, r24	; 0x02
            SendTemp[2] = ID.ch[1];
     afa:	80 91 b2 00 	lds	r24, 0x00B2
     afe:	8b 83       	std	Y+3, r24	; 0x03
            SendTemp[3] = ID.ch[0];
     b00:	80 91 b1 00 	lds	r24, 0x00B1
     b04:	8c 83       	std	Y+4, r24	; 0x04
            SendDataToPC(0x77, SendTemp , 4);
     b06:	87 e7       	ldi	r24, 0x77	; 119
     b08:	72 c0       	rjmp	.+228    	; 0xbee <main+0x27a>
            //ErrorDisplay(ERRCODE_DeviceAddrErr);
            continue;
        }
        /* Judge CRC16 is OK */
        if(!FrameCRC16IsOK(RxFrame))
     b0a:	20 91 b6 00 	lds	r18, 0x00B6
     b0e:	30 91 b7 00 	lds	r19, 0x00B7
     b12:	40 91 b8 00 	lds	r20, 0x00B8
     b16:	50 91 b9 00 	lds	r21, 0x00B9
     b1a:	60 91 ba 00 	lds	r22, 0x00BA
     b1e:	70 91 bb 00 	lds	r23, 0x00BB
     b22:	80 91 bc 00 	lds	r24, 0x00BC
     b26:	90 91 bd 00 	lds	r25, 0x00BD
     b2a:	ba dc       	rcall	.-1676   	; 0x4a0 <FrameCRC16IsOK>
     b2c:	88 23       	and	r24, r24
     b2e:	11 f0       	breq	.+4      	; 0xb34 <main+0x1c0>
     b30:	1b 86       	std	Y+11, r1	; 0x0b
     b32:	0c c0       	rjmp	.+24     	; 0xb4c <main+0x1d8>
        return 0;
    return 1;
}
void ErrorDisplay(unsigned int ErrCode)
{
    ErrFlag = 1;
     b34:	81 e0       	ldi	r24, 0x01	; 1
     b36:	90 e0       	ldi	r25, 0x00	; 0
     b38:	90 93 d6 00 	sts	0x00D6, r25
     b3c:	80 93 d5 00 	sts	0x00D5, r24
    ErrCode &= 0x0FFF;
    ErrCodeDisplay = ErrCode | 0xE000;
     b40:	30 92 e1 00 	sts	0x00E1, r3
     b44:	20 92 e0 00 	sts	0x00E0, r2
     b48:	20 e8       	ldi	r18, 0x80	; 128
     b4a:	2b 87       	std	Y+11, r18	; 0x0b
            ErrorDisplay(ERRCODE_CRC16Error);
             CRCYesOrNo = 0x80;
        }else{
             CRCYesOrNo = 0;
        }
        tempint = (unsigned int)RxFrame.Data[0];
     b4c:	e0 91 b8 00 	lds	r30, 0x00B8
     b50:	f0 91 b9 00 	lds	r31, 0x00B9
        tempint <<= 8;
     b54:	70 80       	ld	r7, Z
     b56:	66 24       	eor	r6, r6
        tempint |= (unsigned int)RxFrame.Data[1];
     b58:	e0 91 b8 00 	lds	r30, 0x00B8
     b5c:	f0 91 b9 00 	lds	r31, 0x00B9
     b60:	81 81       	ldd	r24, Z+1	; 0x01
     b62:	90 e0       	ldi	r25, 0x00	; 0
     b64:	86 29       	or	r24, r6
     b66:	97 29       	or	r25, r7
        switch(RxFrame.FunCode){
     b68:	20 91 b7 00 	lds	r18, 0x00B7
     b6c:	26 30       	cpi	r18, 0x06	; 6
     b6e:	09 f4       	brne	.+2      	; 0xb72 <main+0x1fe>
     b70:	87 c0       	rjmp	.+270    	; 0xc80 <main+0x30c>
     b72:	27 30       	cpi	r18, 0x07	; 7
     b74:	38 f4       	brcc	.+14     	; 0xb84 <main+0x210>
     b76:	23 30       	cpi	r18, 0x03	; 3
     b78:	09 f4       	brne	.+2      	; 0xb7c <main+0x208>
     b7a:	40 c0       	rjmp	.+128    	; 0xbfc <main+0x288>
     b7c:	24 30       	cpi	r18, 0x04	; 4
     b7e:	09 f0       	breq	.+2      	; 0xb82 <main+0x20e>
     b80:	b3 c1       	rjmp	.+870    	; 0xee8 <main+0x574>
     b82:	15 c0       	rjmp	.+42     	; 0xbae <main+0x23a>
     b84:	25 36       	cpi	r18, 0x65	; 101
     b86:	09 f4       	brne	.+2      	; 0xb8a <main+0x216>
     b88:	fe c0       	rjmp	.+508    	; 0xd86 <main+0x412>
     b8a:	26 36       	cpi	r18, 0x66	; 102
     b8c:	09 f4       	brne	.+2      	; 0xb90 <main+0x21c>
     b8e:	86 c1       	rjmp	.+780    	; 0xe9c <main+0x528>
     b90:	24 36       	cpi	r18, 0x64	; 100
     b92:	09 f0       	breq	.+2      	; 0xb96 <main+0x222>
     b94:	a9 c1       	rjmp	.+850    	; 0xee8 <main+0x574>
            case CommunicationTest:
                SendDataToPC(CommunicationTest, RxFrame.Data, RxFrame.Len - 2);
     b96:	60 91 b8 00 	lds	r22, 0x00B8
     b9a:	70 91 b9 00 	lds	r23, 0x00B9
     b9e:	40 91 ba 00 	lds	r20, 0x00BA
     ba2:	50 91 bb 00 	lds	r21, 0x00BB
     ba6:	42 50       	subi	r20, 0x02	; 2
     ba8:	50 40       	sbci	r21, 0x00	; 0
     baa:	84 e6       	ldi	r24, 0x64	; 100
     bac:	9b c1       	rjmp	.+822    	; 0xee4 <main+0x570>
                break;
            case GET_VALUE:
                switch(tempint){
     bae:	80 52       	subi	r24, 0x20	; 32
     bb0:	90 41       	sbci	r25, 0x10	; 16
     bb2:	09 f5       	brne	.+66     	; 0xbf6 <main+0x282>
                    case ADDR_VALUE:/* Get ADC data */
                        V_DATA.F = (float)T_C;
     bb4:	60 91 da 00 	lds	r22, 0x00DA
     bb8:	70 91 db 00 	lds	r23, 0x00DB
     bbc:	80 e0       	ldi	r24, 0x00	; 0
     bbe:	90 e0       	ldi	r25, 0x00	; 0
     bc0:	f7 d3       	rcall	.+2030   	; 0x13b0 <__floatunsisf>
     bc2:	60 93 ad 00 	sts	0x00AD, r22
     bc6:	70 93 ae 00 	sts	0x00AE, r23
     bca:	80 93 af 00 	sts	0x00AF, r24
     bce:	90 93 b0 00 	sts	0x00B0, r25
                        SendTemp[0] = V_DATA.ch[3];
     bd2:	80 91 b0 00 	lds	r24, 0x00B0
     bd6:	89 83       	std	Y+1, r24	; 0x01
                        SendTemp[1] = V_DATA.ch[2];
     bd8:	80 91 af 00 	lds	r24, 0x00AF
     bdc:	8a 83       	std	Y+2, r24	; 0x02
                        SendTemp[2] = V_DATA.ch[1];
     bde:	80 91 ae 00 	lds	r24, 0x00AE
     be2:	8b 83       	std	Y+3, r24	; 0x03
                        SendTemp[3] = V_DATA.ch[0];
     be4:	80 91 ad 00 	lds	r24, 0x00AD
     be8:	8c 83       	std	Y+4, r24	; 0x04
                        SendDataToPC(GET_VALUE | CRCYesOrNo, SendTemp , 4);
     bea:	8b 85       	ldd	r24, Y+11	; 0x0b
     bec:	84 60       	ori	r24, 0x04	; 4
     bee:	b4 01       	movw	r22, r8
     bf0:	44 e0       	ldi	r20, 0x04	; 4
     bf2:	50 e0       	ldi	r21, 0x00	; 0
     bf4:	77 c1       	rjmp	.+750    	; 0xee4 <main+0x570>
                        break;
                    default:
                        SendTemp[0] = 0x00;
     bf6:	19 82       	std	Y+1, r1	; 0x01
                        SendDataToPC(GET_VALUE | 0x80, SendTemp , 1);
     bf8:	84 e8       	ldi	r24, 0x84	; 132
     bfa:	c1 c0       	rjmp	.+386    	; 0xd7e <main+0x40a>
                        break;
                }
                break;
            case GET_DATA:
                switch(tempint)
     bfc:	84 32       	cpi	r24, 0x24	; 36
     bfe:	91 05       	cpc	r25, r1
     c00:	c9 f0       	breq	.+50     	; 0xc34 <main+0x2c0>
     c02:	85 32       	cpi	r24, 0x25	; 37
     c04:	91 05       	cpc	r25, r1
     c06:	30 f4       	brcc	.+12     	; 0xc14 <main+0x2a0>
     c08:	82 32       	cpi	r24, 0x22	; 34
     c0a:	91 05       	cpc	r25, r1
     c0c:	51 f0       	breq	.+20     	; 0xc22 <main+0x2ae>
     c0e:	83 97       	sbiw	r24, 0x23	; 35
     c10:	a1 f5       	brne	.+104    	; 0xc7a <main+0x306>
     c12:	10 c0       	rjmp	.+32     	; 0xc34 <main+0x2c0>
     c14:	85 32       	cpi	r24, 0x25	; 37
     c16:	91 05       	cpc	r25, r1
     c18:	41 f0       	breq	.+16     	; 0xc2a <main+0x2b6>
     c1a:	86 51       	subi	r24, 0x16	; 22
     c1c:	90 41       	sbci	r25, 0x10	; 16
     c1e:	69 f5       	brne	.+90     	; 0xc7a <main+0x306>
     c20:	0e c0       	rjmp	.+28     	; 0xc3e <main+0x2ca>
                {
                    case ADDR_XSD:/* Get XiaoShuDian Data */
                        SendTemp[0] = 0;
     c22:	19 82       	std	Y+1, r1	; 0x01
                        SendTemp[1] = XiaoShuDian;
     c24:	80 91 be 00 	lds	r24, 0x00BE
     c28:	03 c0       	rjmp	.+6      	; 0xc30 <main+0x2bc>
                        SendDataToPC(GET_DATA | CRCYesOrNo, SendTemp , 2);
                        break;
                    case ADDR_ZERO:/* Get XiaoShuDian Data */
                        SendTemp[0] = 0;
     c2a:	19 82       	std	Y+1, r1	; 0x01
                        SendTemp[1] = ADJ_ZERO;
     c2c:	80 91 a3 00 	lds	r24, 0x00A3
     c30:	8a 83       	std	Y+2, r24	; 0x02
     c32:	02 c0       	rjmp	.+4      	; 0xc38 <main+0x2c4>
                        SendDataToPC(GET_DATA | CRCYesOrNo, SendTemp , 2);
                        break;
                    case ADDR_F1_VALUE:/* Get Freq Data */
                        SendTemp[0] = 0x00;
     c34:	19 82       	std	Y+1, r1	; 0x01
                        SendTemp[1] = 0x00;
     c36:	1a 82       	std	Y+2, r1	; 0x02
                        SendDataToPC(GET_DATA | CRCYesOrNo, SendTemp , 2);
     c38:	8b 85       	ldd	r24, Y+11	; 0x0b
     c3a:	83 60       	ori	r24, 0x03	; 3
     c3c:	50 c1       	rjmp	.+672    	; 0xede <main+0x56a>
                        SendTemp[0] = 0x00;
                        SendTemp[1] = 0x00;
                        SendDataToPC(GET_DATA | CRCYesOrNo, SendTemp , 2);
                        break;
                    case ADDR_FW_MAX:
                        SendTemp[0] = V_MAX.ch[3];
     c3e:	80 91 a8 00 	lds	r24, 0x00A8
     c42:	89 83       	std	Y+1, r24	; 0x01
                        SendTemp[1] = V_MAX.ch[2];
     c44:	80 91 a7 00 	lds	r24, 0x00A7
     c48:	8a 83       	std	Y+2, r24	; 0x02
                        SendTemp[2] = V_MAX.ch[1];
     c4a:	80 91 a6 00 	lds	r24, 0x00A6
     c4e:	8b 83       	std	Y+3, r24	; 0x03
                        SendTemp[3] = V_MAX.ch[0];
     c50:	80 91 a5 00 	lds	r24, 0x00A5
     c54:	8c 83       	std	Y+4, r24	; 0x04

                        SendTemp[4] = V_MIN.ch[3];
     c56:	80 91 ac 00 	lds	r24, 0x00AC
     c5a:	8d 83       	std	Y+5, r24	; 0x05
                        SendTemp[5] = V_MIN.ch[2];
     c5c:	80 91 ab 00 	lds	r24, 0x00AB
     c60:	8e 83       	std	Y+6, r24	; 0x06
                        SendTemp[6] = V_MIN.ch[1];
     c62:	80 91 aa 00 	lds	r24, 0x00AA
     c66:	8f 83       	std	Y+7, r24	; 0x07
                        SendTemp[7] = V_MIN.ch[0];
     c68:	80 91 a9 00 	lds	r24, 0x00A9
     c6c:	88 87       	std	Y+8, r24	; 0x08
                        SendDataToPC(GET_DATA | CRCYesOrNo, SendTemp , 8);
     c6e:	8b 85       	ldd	r24, Y+11	; 0x0b
     c70:	83 60       	ori	r24, 0x03	; 3
     c72:	b4 01       	movw	r22, r8
     c74:	48 e0       	ldi	r20, 0x08	; 8
     c76:	50 e0       	ldi	r21, 0x00	; 0
     c78:	35 c1       	rjmp	.+618    	; 0xee4 <main+0x570>
                        break;
                    default:
                        SendTemp[0] = 0x00;
     c7a:	19 82       	std	Y+1, r1	; 0x01
                        CRCYesOrNo = 0x80;
                        SendDataToPC(GET_DATA | CRCYesOrNo, SendTemp , 1);
     c7c:	83 e8       	ldi	r24, 0x83	; 131
     c7e:	7f c0       	rjmp	.+254    	; 0xd7e <main+0x40a>
                        break;
                }
                break;
            case SET_DEVICEADDR:
                switch(tempint)
     c80:	82 32       	cpi	r24, 0x22	; 34
     c82:	91 05       	cpc	r25, r1
     c84:	79 f1       	breq	.+94     	; 0xce4 <main+0x370>
     c86:	85 32       	cpi	r24, 0x25	; 37
     c88:	91 05       	cpc	r25, r1
     c8a:	09 f4       	brne	.+2      	; 0xc8e <main+0x31a>
     c8c:	4f c0       	rjmp	.+158    	; 0xd2c <main+0x3b8>
     c8e:	40 97       	sbiw	r24, 0x10	; 16
     c90:	09 f0       	breq	.+2      	; 0xc94 <main+0x320>
     c92:	73 c0       	rjmp	.+230    	; 0xd7a <main+0x406>
                {
                    case ADDR_DEV:/* change device addr */
                        if(RxFrame.Data[3] == 0x00){
     c94:	e0 91 b8 00 	lds	r30, 0x00B8
     c98:	f0 91 b9 00 	lds	r31, 0x00B9
     c9c:	83 81       	ldd	r24, Z+3	; 0x03
     c9e:	88 23       	and	r24, r24
     ca0:	09 f4       	brne	.+2      	; 0xca4 <main+0x330>
     ca2:	e2 ce       	rjmp	.-572    	; 0xa68 <main+0xf4>
                            break;
                        }
                        tempch = RxFrame.Data[3];
     ca4:	e0 91 b8 00 	lds	r30, 0x00B8
     ca8:	f0 91 b9 00 	lds	r31, 0x00B9
     cac:	13 81       	ldd	r17, Z+3	; 0x03
                        //SendTemp[0] = DeviceAddr;
                        SendTemp[0] = RxFrame.Data[0];
     cae:	e0 91 b8 00 	lds	r30, 0x00B8
     cb2:	f0 91 b9 00 	lds	r31, 0x00B9
     cb6:	80 81       	ld	r24, Z
     cb8:	89 83       	std	Y+1, r24	; 0x01
                        SendTemp[1] = RxFrame.Data[1];
     cba:	e0 91 b8 00 	lds	r30, 0x00B8
     cbe:	f0 91 b9 00 	lds	r31, 0x00B9
     cc2:	81 81       	ldd	r24, Z+1	; 0x01
     cc4:	8a 83       	std	Y+2, r24	; 0x02
                        SendTemp[2] = 0x00;
     cc6:	1b 82       	std	Y+3, r1	; 0x03
                        SendTemp[3] = tempch;
     cc8:	1c 83       	std	Y+4, r17	; 0x04
                        SendDataToPC(SET_DEVICEADDR | CRCYesOrNo, SendTemp , 4);
     cca:	8b 85       	ldd	r24, Y+11	; 0x0b
     ccc:	86 60       	ori	r24, 0x06	; 6
     cce:	b4 01       	movw	r22, r8
     cd0:	44 e0       	ldi	r20, 0x04	; 4
     cd2:	50 e0       	ldi	r21, 0x00	; 0
     cd4:	2f dc       	rcall	.-1954   	; 0x534 <SendDataToPC>
                        DeviceAddr = tempch;
     cd6:	10 93 e2 00 	sts	0x00E2, r17
#ifndef MYDEBUG
                        WRITE_BYTE_EEP(DeviceAddr,&ADDR_EEP);
     cda:	80 91 e2 00 	lds	r24, 0x00E2
     cde:	60 e0       	ldi	r22, 0x00	; 0
     ce0:	70 e0       	ldi	r23, 0x00	; 0
     ce2:	49 c0       	rjmp	.+146    	; 0xd76 <main+0x402>
#endif
                        break;
                    case ADDR_XSD:
                        XiaoShuDian =  RxFrame.Data[3];
     ce4:	e0 91 b8 00 	lds	r30, 0x00B8
     ce8:	f0 91 b9 00 	lds	r31, 0x00B9
     cec:	83 81       	ldd	r24, Z+3	; 0x03
     cee:	80 93 be 00 	sts	0x00BE, r24
                        //SendTemp[0] = XiaoShuDian;
                        SendTemp[0] = RxFrame.Data[0];
     cf2:	e0 91 b8 00 	lds	r30, 0x00B8
     cf6:	f0 91 b9 00 	lds	r31, 0x00B9
     cfa:	80 81       	ld	r24, Z
     cfc:	89 83       	std	Y+1, r24	; 0x01
                        SendTemp[1] = RxFrame.Data[1];
     cfe:	e0 91 b8 00 	lds	r30, 0x00B8
     d02:	f0 91 b9 00 	lds	r31, 0x00B9
     d06:	81 81       	ldd	r24, Z+1	; 0x01
     d08:	8a 83       	std	Y+2, r24	; 0x02
                        SendTemp[2] = 0x00;
     d0a:	1b 82       	std	Y+3, r1	; 0x03
                        SendTemp[3] = XiaoShuDian;
     d0c:	80 91 be 00 	lds	r24, 0x00BE
     d10:	8c 83       	std	Y+4, r24	; 0x04
                        SendDataToPC(SET_DEVICEADDR | CRCYesOrNo, SendTemp , 4);
     d12:	8b 85       	ldd	r24, Y+11	; 0x0b
     d14:	86 60       	ori	r24, 0x06	; 6
     d16:	b4 01       	movw	r22, r8
     d18:	44 e0       	ldi	r20, 0x04	; 4
     d1a:	50 e0       	ldi	r21, 0x00	; 0
     d1c:	0b dc       	rcall	.-2026   	; 0x534 <SendDataToPC>
#ifndef MYDEBUG
                        WRITE_BYTE_EEP(XiaoShuDian,pXSD_EEP);
     d1e:	80 91 be 00 	lds	r24, 0x00BE
     d22:	60 91 9e 00 	lds	r22, 0x009E
     d26:	70 91 9f 00 	lds	r23, 0x009F
     d2a:	25 c0       	rjmp	.+74     	; 0xd76 <main+0x402>
#endif
                        break;
                    case ADDR_ZERO:
                        ADJ_ZERO =  RxFrame.Data[3];
     d2c:	e0 91 b8 00 	lds	r30, 0x00B8
     d30:	f0 91 b9 00 	lds	r31, 0x00B9
     d34:	83 81       	ldd	r24, Z+3	; 0x03
     d36:	80 93 a3 00 	sts	0x00A3, r24
     d3a:	10 92 a4 00 	sts	0x00A4, r1
                        //SendTemp[0] = XiaoShuDian;
                        SendTemp[0] = RxFrame.Data[0];
     d3e:	e0 91 b8 00 	lds	r30, 0x00B8
     d42:	f0 91 b9 00 	lds	r31, 0x00B9
     d46:	80 81       	ld	r24, Z
     d48:	89 83       	std	Y+1, r24	; 0x01
                        SendTemp[1] = RxFrame.Data[1];
     d4a:	e0 91 b8 00 	lds	r30, 0x00B8
     d4e:	f0 91 b9 00 	lds	r31, 0x00B9
     d52:	81 81       	ldd	r24, Z+1	; 0x01
     d54:	8a 83       	std	Y+2, r24	; 0x02
                        SendTemp[2] = 0x00;
     d56:	1b 82       	std	Y+3, r1	; 0x03
                        SendTemp[3] = XiaoShuDian;
     d58:	80 91 be 00 	lds	r24, 0x00BE
     d5c:	8c 83       	std	Y+4, r24	; 0x04
                        SendDataToPC(SET_DEVICEADDR | CRCYesOrNo, SendTemp , 4);
     d5e:	8b 85       	ldd	r24, Y+11	; 0x0b
     d60:	86 60       	ori	r24, 0x06	; 6
     d62:	b4 01       	movw	r22, r8
     d64:	44 e0       	ldi	r20, 0x04	; 4
     d66:	50 e0       	ldi	r21, 0x00	; 0
     d68:	e5 db       	rcall	.-2102   	; 0x534 <SendDataToPC>
#ifndef MYDEBUG
                        WRITE_BYTE_EEP(ADJ_ZERO,pADJ_ZERO);
     d6a:	60 91 a0 00 	lds	r22, 0x00A0
     d6e:	70 91 a1 00 	lds	r23, 0x00A1
     d72:	80 91 a3 00 	lds	r24, 0x00A3
     d76:	2e dd       	rcall	.-1444   	; 0x7d4 <WRITE_BYTE_EEP>
     d78:	77 ce       	rjmp	.-786    	; 0xa68 <main+0xf4>
#endif
                        break;
                    default:
                        SendTemp[0] = 0x00;
     d7a:	19 82       	std	Y+1, r1	; 0x01
                        SendDataToPC(SET_DEVICEADDR | 0x80, SendTemp , 1);
     d7c:	86 e8       	ldi	r24, 0x86	; 134
     d7e:	b4 01       	movw	r22, r8
     d80:	41 e0       	ldi	r20, 0x01	; 1
     d82:	50 e0       	ldi	r21, 0x00	; 0
     d84:	af c0       	rjmp	.+350    	; 0xee4 <main+0x570>
                        break;
                }
                break;
            case SET_VALUE:
#if 1
                switch(tempint){
     d86:	86 51       	subi	r24, 0x16	; 22
     d88:	90 41       	sbci	r25, 0x10	; 16
     d8a:	09 f0       	breq	.+2      	; 0xd8e <main+0x41a>
     d8c:	6d ce       	rjmp	.-806    	; 0xa68 <main+0xf4>
                    case ADDR_FW_MAX:

                        V_MAX.ch[3] = RxFrame.Data[5];
     d8e:	e0 91 b8 00 	lds	r30, 0x00B8
     d92:	f0 91 b9 00 	lds	r31, 0x00B9
     d96:	85 81       	ldd	r24, Z+5	; 0x05
     d98:	80 93 a8 00 	sts	0x00A8, r24
                        V_MAX.ch[2] = RxFrame.Data[6];
     d9c:	e0 91 b8 00 	lds	r30, 0x00B8
     da0:	f0 91 b9 00 	lds	r31, 0x00B9
     da4:	86 81       	ldd	r24, Z+6	; 0x06
     da6:	80 93 a7 00 	sts	0x00A7, r24
                        V_MAX.ch[1] = RxFrame.Data[7];
     daa:	e0 91 b8 00 	lds	r30, 0x00B8
     dae:	f0 91 b9 00 	lds	r31, 0x00B9
     db2:	87 81       	ldd	r24, Z+7	; 0x07
     db4:	80 93 a6 00 	sts	0x00A6, r24
                        V_MAX.ch[0] = RxFrame.Data[8];
     db8:	e0 91 b8 00 	lds	r30, 0x00B8
     dbc:	f0 91 b9 00 	lds	r31, 0x00B9
     dc0:	80 85       	ldd	r24, Z+8	; 0x08
     dc2:	80 93 a5 00 	sts	0x00A5, r24

                        V_MIN.ch[3] = RxFrame.Data[9];
     dc6:	e0 91 b8 00 	lds	r30, 0x00B8
     dca:	f0 91 b9 00 	lds	r31, 0x00B9
     dce:	81 85       	ldd	r24, Z+9	; 0x09
     dd0:	80 93 ac 00 	sts	0x00AC, r24
                        V_MIN.ch[2] = RxFrame.Data[10];
     dd4:	e0 91 b8 00 	lds	r30, 0x00B8
     dd8:	f0 91 b9 00 	lds	r31, 0x00B9
     ddc:	82 85       	ldd	r24, Z+10	; 0x0a
     dde:	80 93 ab 00 	sts	0x00AB, r24
                        V_MIN.ch[1] = RxFrame.Data[11];
     de2:	e0 91 b8 00 	lds	r30, 0x00B8
     de6:	f0 91 b9 00 	lds	r31, 0x00B9
     dea:	83 85       	ldd	r24, Z+11	; 0x0b
     dec:	80 93 aa 00 	sts	0x00AA, r24
                        V_MIN.ch[0] = RxFrame.Data[12];
     df0:	e0 91 b8 00 	lds	r30, 0x00B8
     df4:	f0 91 b9 00 	lds	r31, 0x00B9
     df8:	84 85       	ldd	r24, Z+12	; 0x0c
     dfa:	80 93 a9 00 	sts	0x00A9, r24

                        tempA =(unsigned int) V_MAX.L;
                        tempB =(unsigned int) V_MIN.L;

                        VALUE_MAX = Out_MAX(tempA,tempB);
     dfe:	a0 90 a5 00 	lds	r10, 0x00A5
     e02:	b0 90 a6 00 	lds	r11, 0x00A6
     e06:	e0 90 a9 00 	lds	r14, 0x00A9
     e0a:	f0 90 aa 00 	lds	r15, 0x00AA
     e0e:	c5 01       	movw	r24, r10
     e10:	b7 01       	movw	r22, r14
     e12:	25 d9       	rcall	.-3510   	; 0x5e <Out_MAX>
     e14:	70 93 dd 00 	sts	0x00DD, r23
     e18:	60 93 dc 00 	sts	0x00DC, r22
                        VALUE_MIN = Out_MIN(tempA,tempB);
     e1c:	c5 01       	movw	r24, r10
     e1e:	b7 01       	movw	r22, r14
     e20:	46 d9       	rcall	.-3444   	; 0xae <Out_MIN>
     e22:	70 93 df 00 	sts	0x00DF, r23
     e26:	60 93 de 00 	sts	0x00DE, r22

                        SendTemp[0] = RxFrame.Data[0];
     e2a:	e0 91 b8 00 	lds	r30, 0x00B8
     e2e:	f0 91 b9 00 	lds	r31, 0x00B9
     e32:	80 81       	ld	r24, Z
     e34:	89 83       	std	Y+1, r24	; 0x01
                        SendTemp[1] = RxFrame.Data[1];
     e36:	e0 91 b8 00 	lds	r30, 0x00B8
     e3a:	f0 91 b9 00 	lds	r31, 0x00B9
     e3e:	81 81       	ldd	r24, Z+1	; 0x01
     e40:	8a 83       	std	Y+2, r24	; 0x02
                        SendTemp[2] = 0x08;
     e42:	88 e0       	ldi	r24, 0x08	; 8
     e44:	8b 83       	std	Y+3, r24	; 0x03

                        SendDataToPC(SET_VALUE | CRCYesOrNo, SendTemp , 3);
     e46:	8b 85       	ldd	r24, Y+11	; 0x0b
     e48:	85 66       	ori	r24, 0x65	; 101
     e4a:	b4 01       	movw	r22, r8
     e4c:	43 e0       	ldi	r20, 0x03	; 3
     e4e:	50 e0       	ldi	r21, 0x00	; 0
     e50:	71 db       	rcall	.-2334   	; 0x534 <SendDataToPC>
#ifndef MYDEBUG
                        WRITE_WORD_EEP(VALUE_MAX,pMAX_EEP);
     e52:	80 91 dc 00 	lds	r24, 0x00DC
     e56:	90 91 dd 00 	lds	r25, 0x00DD
     e5a:	60 91 9a 00 	lds	r22, 0x009A
     e5e:	70 91 9b 00 	lds	r23, 0x009B
     e62:	c3 dc       	rcall	.-1658   	; 0x7ea <WRITE_WORD_EEP>
                        WRITE_WORD_EEP(VALUE_MIN,pMIN_EEP);
     e64:	80 91 de 00 	lds	r24, 0x00DE
     e68:	90 91 df 00 	lds	r25, 0x00DF
     e6c:	60 91 9c 00 	lds	r22, 0x009C
     e70:	70 91 9d 00 	lds	r23, 0x009D
     e74:	ba dc       	rcall	.-1676   	; 0x7ea <WRITE_WORD_EEP>
                        WRITE_WORD_EEP(VALUE_MAX,pMAX_EEP);
     e76:	80 91 dc 00 	lds	r24, 0x00DC
     e7a:	90 91 dd 00 	lds	r25, 0x00DD
     e7e:	60 91 9a 00 	lds	r22, 0x009A
     e82:	70 91 9b 00 	lds	r23, 0x009B
     e86:	b1 dc       	rcall	.-1694   	; 0x7ea <WRITE_WORD_EEP>
                        WRITE_WORD_EEP(VALUE_MIN,pMIN_EEP);
     e88:	80 91 de 00 	lds	r24, 0x00DE
     e8c:	90 91 df 00 	lds	r25, 0x00DF
     e90:	60 91 9c 00 	lds	r22, 0x009C
     e94:	70 91 9d 00 	lds	r23, 0x009D
     e98:	a8 dc       	rcall	.-1712   	; 0x7ea <WRITE_WORD_EEP>
     e9a:	e6 cd       	rjmp	.-1076   	; 0xa68 <main+0xf4>
#endif
                }
                break;
#endif
            case GET_ID:
                SendTemp[0] = 0x00;
     e9c:	19 82       	std	Y+1, r1	; 0x01
                switch(tempint)
     e9e:	82 31       	cpi	r24, 0x12	; 18
     ea0:	91 05       	cpc	r25, r1
     ea2:	79 f0       	breq	.+30     	; 0xec2 <main+0x54e>
     ea4:	83 31       	cpi	r24, 0x13	; 19
     ea6:	91 05       	cpc	r25, r1
     ea8:	18 f4       	brcc	.+6      	; 0xeb0 <main+0x53c>
     eaa:	41 97       	sbiw	r24, 0x11	; 17
     eac:	99 f4       	brne	.+38     	; 0xed4 <main+0x560>
     eae:	06 c0       	rjmp	.+12     	; 0xebc <main+0x548>
     eb0:	83 31       	cpi	r24, 0x13	; 19
     eb2:	91 05       	cpc	r25, r1
     eb4:	49 f0       	breq	.+18     	; 0xec8 <main+0x554>
     eb6:	44 97       	sbiw	r24, 0x14	; 20
     eb8:	69 f4       	brne	.+26     	; 0xed4 <main+0x560>
     eba:	08 c0       	rjmp	.+16     	; 0xecc <main+0x558>
                {
                    case ADDR_CID:
                        SendTemp[1] = CODE_CID;
     ebc:	98 e8       	ldi	r25, 0x88	; 136
     ebe:	9a 83       	std	Y+2, r25	; 0x02
     ec0:	0c c0       	rjmp	.+24     	; 0xeda <main+0x566>
                        break;
                    case ADDR_PID:
                        SendTemp[1] = CODE_PID;
     ec2:	20 e8       	ldi	r18, 0x80	; 128
     ec4:	2a 83       	std	Y+2, r18	; 0x02
     ec6:	09 c0       	rjmp	.+18     	; 0xeda <main+0x566>
                        break;
                    case ADDR_VID:
                        SendTemp[1] = CODE_VID;
     ec8:	1a 82       	std	Y+2, r1	; 0x02
     eca:	07 c0       	rjmp	.+14     	; 0xeda <main+0x566>
                        break;
                    case ADDR_FID:
                        SendTemp[1] = MEASURE_MODE;
     ecc:	80 91 a2 00 	lds	r24, 0x00A2
     ed0:	8a 83       	std	Y+2, r24	; 0x02
     ed2:	03 c0       	rjmp	.+6      	; 0xeda <main+0x566>
                        break;
                    default:
                        SendTemp[0] = 0x00;
     ed4:	19 82       	std	Y+1, r1	; 0x01
     ed6:	80 e8       	ldi	r24, 0x80	; 128
     ed8:	8b 87       	std	Y+11, r24	; 0x0b
                        CRCYesOrNo = 0x80;
                        break;
                }
                SendDataToPC(GET_ID | CRCYesOrNo, SendTemp , 2);
     eda:	8b 85       	ldd	r24, Y+11	; 0x0b
     edc:	86 66       	ori	r24, 0x66	; 102
     ede:	b4 01       	movw	r22, r8
     ee0:	42 e0       	ldi	r20, 0x02	; 2
     ee2:	50 e0       	ldi	r21, 0x00	; 0
     ee4:	27 db       	rcall	.-2482   	; 0x534 <SendDataToPC>
     ee6:	c0 cd       	rjmp	.-1152   	; 0xa68 <main+0xf4>
                        break;
                }
                break;
#endif
            default:
                RxFrame.FunCode |= 0x80;
     ee8:	80 91 b7 00 	lds	r24, 0x00B7
     eec:	80 68       	ori	r24, 0x80	; 128
     eee:	80 93 b7 00 	sts	0x00B7, r24
                SendDataToPC(RxFrame.FunCode, RxFrame.Data, RxFrame.Len - 2);
     ef2:	80 91 b7 00 	lds	r24, 0x00B7
     ef6:	60 91 b8 00 	lds	r22, 0x00B8
     efa:	70 91 b9 00 	lds	r23, 0x00B9
     efe:	40 91 ba 00 	lds	r20, 0x00BA
     f02:	50 91 bb 00 	lds	r21, 0x00BB
     f06:	42 50       	subi	r20, 0x02	; 2
     f08:	50 40       	sbci	r21, 0x00	; 0
     f0a:	14 db       	rcall	.-2520   	; 0x534 <SendDataToPC>
        return 0;
    return 1;
}
void ErrorDisplay(unsigned int ErrCode)
{
    ErrFlag = 1;
     f0c:	81 e0       	ldi	r24, 0x01	; 1
     f0e:	90 e0       	ldi	r25, 0x00	; 0
     f10:	90 93 d6 00 	sts	0x00D6, r25
     f14:	80 93 d5 00 	sts	0x00D5, r24
    ErrCode &= 0x0FFF;
    ErrCodeDisplay = ErrCode | 0xE000;
     f18:	50 92 e1 00 	sts	0x00E1, r5
     f1c:	40 92 e0 00 	sts	0x00E0, r4
#endif
            default:
                RxFrame.FunCode |= 0x80;
                SendDataToPC(RxFrame.FunCode, RxFrame.Data, RxFrame.Len - 2);
                ErrorDisplay(ERRCODE_FunCodeInvalid);
                PORTD ^= (1<<6);
     f20:	82 b3       	in	r24, 0x12	; 18
     f22:	90 e4       	ldi	r25, 0x40	; 64
     f24:	89 27       	eor	r24, r25
     f26:	82 bb       	out	0x12, r24	; 18
     f28:	9f cd       	rjmp	.-1218   	; 0xa68 <main+0xf4>

00000f2a <SPISend>:
//send data to LED
void SPISend(unsigned char Data)
{
	int i;

	WEIBUS_0(bSCLK);
     f2a:	c0 98       	cbi	0x18, 0	; 24
	WEIBUS_0(bLCLK);
     f2c:	c1 98       	cbi	0x18, 1	; 24
     f2e:	20 e0       	ldi	r18, 0x00	; 0
     f30:	30 e0       	ldi	r19, 0x00	; 0
	for(i=0;i<8;i++)
	{
	    if(Data & (0x80>>i))
     f32:	60 e8       	ldi	r22, 0x80	; 128
     f34:	70 e0       	ldi	r23, 0x00	; 0
     f36:	48 2f       	mov	r20, r24
     f38:	50 e0       	ldi	r21, 0x00	; 0
     f3a:	cb 01       	movw	r24, r22
     f3c:	02 2e       	mov	r0, r18
     f3e:	02 c0       	rjmp	.+4      	; 0xf44 <SPISend+0x1a>
     f40:	95 95       	asr	r25
     f42:	87 95       	ror	r24
     f44:	0a 94       	dec	r0
     f46:	e2 f7       	brpl	.-8      	; 0xf40 <SPISend+0x16>
     f48:	84 23       	and	r24, r20
     f4a:	95 23       	and	r25, r21
     f4c:	89 2b       	or	r24, r25
     f4e:	11 f0       	breq	.+4      	; 0xf54 <SPISend+0x2a>
		WEIBUS_1(bSDI);
     f50:	c2 9a       	sbi	0x18, 2	; 24
     f52:	01 c0       	rjmp	.+2      	; 0xf56 <SPISend+0x2c>
	    else
		WEIBUS_0(bSDI);
     f54:	c2 98       	cbi	0x18, 2	; 24
	    WEIBUS_1(bSCLK);
     f56:	c0 9a       	sbi	0x18, 0	; 24
	    WEIBUS_0(bSCLK);
     f58:	c0 98       	cbi	0x18, 0	; 24
{
	int i;

	WEIBUS_0(bSCLK);
	WEIBUS_0(bLCLK);
	for(i=0;i<8;i++)
     f5a:	2f 5f       	subi	r18, 0xFF	; 255
     f5c:	3f 4f       	sbci	r19, 0xFF	; 255
     f5e:	28 30       	cpi	r18, 0x08	; 8
     f60:	31 05       	cpc	r19, r1
     f62:	59 f7       	brne	.-42     	; 0xf3a <SPISend+0x10>
	    else
		WEIBUS_0(bSDI);
	    WEIBUS_1(bSCLK);
	    WEIBUS_0(bSCLK);
	}
	WEIBUS_1(bLCLK);
     f64:	c1 9a       	sbi	0x18, 1	; 24
	WEIBUS_0(bLCLK);
     f66:	c1 98       	cbi	0x18, 1	; 24
}
     f68:	08 95       	ret

00000f6a <__vector_9>:
SIGNAL(SIG_OVERFLOW0)
{
     f6a:	1f 92       	push	r1
     f6c:	0f 92       	push	r0
     f6e:	0f b6       	in	r0, 0x3f	; 63
     f70:	0f 92       	push	r0
     f72:	11 24       	eor	r1, r1
     f74:	2f 93       	push	r18
     f76:	3f 93       	push	r19
     f78:	4f 93       	push	r20
     f7a:	5f 93       	push	r21
     f7c:	6f 93       	push	r22
     f7e:	7f 93       	push	r23
     f80:	8f 93       	push	r24
     f82:	9f 93       	push	r25
     f84:	af 93       	push	r26
     f86:	bf 93       	push	r27
     f88:	ef 93       	push	r30
     f8a:	ff 93       	push	r31
	switch(DuanAddr)
     f8c:	80 91 b5 00 	lds	r24, 0x00B5
     f90:	81 30       	cpi	r24, 0x01	; 1
     f92:	79 f0       	breq	.+30     	; 0xfb2 <__vector_9+0x48>
     f94:	81 30       	cpi	r24, 0x01	; 1
     f96:	28 f0       	brcs	.+10     	; 0xfa2 <__vector_9+0x38>
     f98:	82 30       	cpi	r24, 0x02	; 2
     f9a:	99 f0       	breq	.+38     	; 0xfc2 <__vector_9+0x58>
     f9c:	83 30       	cpi	r24, 0x03	; 3
     f9e:	01 f5       	brne	.+64     	; 0xfe0 <__vector_9+0x76>
     fa0:	18 c0       	rjmp	.+48     	; 0xfd2 <__vector_9+0x68>
	{
	case 0:	DUANALL_1;	
     fa2:	85 b3       	in	r24, 0x15	; 21
     fa4:	8f 60       	ori	r24, 0x0F	; 15
     fa6:	85 bb       	out	0x15, r24	; 21
		SPISend(LEDBUFFER[0]);
     fa8:	80 91 70 00 	lds	r24, 0x0070
     fac:	be df       	rcall	.-132    	; 0xf2a <SPISend>
		DUANBUS_0(bDUAN1);
     fae:	a8 98       	cbi	0x15, 0	; 21
     fb0:	17 c0       	rjmp	.+46     	; 0xfe0 <__vector_9+0x76>
		break;
	case 1:	DUANALL_1;	
     fb2:	85 b3       	in	r24, 0x15	; 21
     fb4:	8f 60       	ori	r24, 0x0F	; 15
     fb6:	85 bb       	out	0x15, r24	; 21
		SPISend(LEDBUFFER[1]);
     fb8:	80 91 71 00 	lds	r24, 0x0071
     fbc:	b6 df       	rcall	.-148    	; 0xf2a <SPISend>
		DUANBUS_0(bDUAN2);
     fbe:	a9 98       	cbi	0x15, 1	; 21
     fc0:	0f c0       	rjmp	.+30     	; 0xfe0 <__vector_9+0x76>
		break;
	case 2:	DUANALL_1;	
     fc2:	85 b3       	in	r24, 0x15	; 21
     fc4:	8f 60       	ori	r24, 0x0F	; 15
     fc6:	85 bb       	out	0x15, r24	; 21
		SPISend(LEDBUFFER[2]);
     fc8:	80 91 72 00 	lds	r24, 0x0072
     fcc:	ae df       	rcall	.-164    	; 0xf2a <SPISend>
		DUANBUS_0(bDUAN3);
     fce:	aa 98       	cbi	0x15, 2	; 21
     fd0:	07 c0       	rjmp	.+14     	; 0xfe0 <__vector_9+0x76>
		break;
	case 3:	DUANALL_1;	
     fd2:	85 b3       	in	r24, 0x15	; 21
     fd4:	8f 60       	ori	r24, 0x0F	; 15
     fd6:	85 bb       	out	0x15, r24	; 21
		SPISend(LEDBUFFER[3]);
     fd8:	80 91 73 00 	lds	r24, 0x0073
     fdc:	a6 df       	rcall	.-180    	; 0xf2a <SPISend>
		DUANBUS_0(bDUAN4);
     fde:	ab 98       	cbi	0x15, 3	; 21
	}
	DuanAddr++;
     fe0:	80 91 b5 00 	lds	r24, 0x00B5
     fe4:	8f 5f       	subi	r24, 0xFF	; 255
     fe6:	80 93 b5 00 	sts	0x00B5, r24
	if(DuanAddr>3)
     fea:	80 91 b5 00 	lds	r24, 0x00B5
     fee:	84 30       	cpi	r24, 0x04	; 4
     ff0:	10 f0       	brcs	.+4      	; 0xff6 <__vector_9+0x8c>
		DuanAddr = 0;
     ff2:	10 92 b5 00 	sts	0x00B5, r1
	TCNT0 = Timer1Count;
     ff6:	80 ef       	ldi	r24, 0xF0	; 240
     ff8:	82 bf       	out	0x32, r24	; 50
}
     ffa:	ff 91       	pop	r31
     ffc:	ef 91       	pop	r30
     ffe:	bf 91       	pop	r27
    1000:	af 91       	pop	r26
    1002:	9f 91       	pop	r25
    1004:	8f 91       	pop	r24
    1006:	7f 91       	pop	r23
    1008:	6f 91       	pop	r22
    100a:	5f 91       	pop	r21
    100c:	4f 91       	pop	r20
    100e:	3f 91       	pop	r19
    1010:	2f 91       	pop	r18
    1012:	0f 90       	pop	r0
    1014:	0f be       	out	0x3f, r0	; 63
    1016:	0f 90       	pop	r0
    1018:	1f 90       	pop	r1
    101a:	18 95       	reti

0000101c <OpenDisplayLED>:
unsigned char OpenDisplayLED(void)
{
	/* clock select clk/32 */
	TCCR0 = Timer1ClkSel;
    101c:	85 e0       	ldi	r24, 0x05	; 5
    101e:	83 bf       	out	0x33, r24	; 51
	/* enabile Timer0 */
	TIMSK |= 0x01;
    1020:	89 b7       	in	r24, 0x39	; 57
    1022:	81 60       	ori	r24, 0x01	; 1
    1024:	89 bf       	out	0x39, r24	; 57
	TCNT0 = Timer1Count;
    1026:	80 ef       	ldi	r24, 0xF0	; 240
    1028:	82 bf       	out	0x32, r24	; 50
	DuanAddr = 0;
    102a:	10 92 b5 00 	sts	0x00B5, r1
	return 0;
}
    102e:	80 e0       	ldi	r24, 0x00	; 0
    1030:	08 95       	ret

00001032 <DisplayHex>:
/* ********************************************************************** */
void DisplayHex(unsigned int TempData)
{
	LEDBUFFER[3] = LEDMA[(unsigned char)(TempData & 0x0F)];
    1032:	28 2f       	mov	r18, r24
    1034:	2f 70       	andi	r18, 0x0F	; 15
    1036:	40 e6       	ldi	r20, 0x60	; 96
    1038:	50 e0       	ldi	r21, 0x00	; 0
    103a:	fa 01       	movw	r30, r20
    103c:	e2 0f       	add	r30, r18
    103e:	f1 1d       	adc	r31, r1
    1040:	20 81       	ld	r18, Z
    1042:	20 93 73 00 	sts	0x0073, r18
	TempData = TempData>>4;
    1046:	9c 01       	movw	r18, r24
    1048:	64 e0       	ldi	r22, 0x04	; 4
    104a:	36 95       	lsr	r19
    104c:	27 95       	ror	r18
    104e:	6a 95       	dec	r22
    1050:	e1 f7       	brne	.-8      	; 0x104a <DisplayHex+0x18>
	LEDBUFFER[2] = LEDMA[(unsigned char)(TempData & 0x0F)];
    1052:	2f 70       	andi	r18, 0x0F	; 15
    1054:	fa 01       	movw	r30, r20
    1056:	e2 0f       	add	r30, r18
    1058:	f1 1d       	adc	r31, r1
    105a:	20 81       	ld	r18, Z
    105c:	a2 e7       	ldi	r26, 0x72	; 114
    105e:	b0 e0       	ldi	r27, 0x00	; 0
    1060:	2c 93       	st	X, r18
	TempData = TempData>>4;
	LEDBUFFER[1] = LEDMA[(unsigned char)(TempData & 0x0F)];
    1062:	e9 2f       	mov	r30, r25
    1064:	ff 27       	eor	r31, r31
    1066:	ef 70       	andi	r30, 0x0F	; 15
    1068:	f0 70       	andi	r31, 0x00	; 0
    106a:	e4 0f       	add	r30, r20
    106c:	f5 1f       	adc	r31, r21
    106e:	20 81       	ld	r18, Z
    1070:	2e 93       	st	-X, r18
	TempData = TempData>>4;
	LEDBUFFER[0] = LEDMA[(unsigned char)(TempData & 0x0F)];
    1072:	89 2f       	mov	r24, r25
    1074:	99 27       	eor	r25, r25
    1076:	82 95       	swap	r24
    1078:	8f 70       	andi	r24, 0x0F	; 15
    107a:	48 0f       	add	r20, r24
    107c:	59 1f       	adc	r21, r25
    107e:	fa 01       	movw	r30, r20
    1080:	80 81       	ld	r24, Z
    1082:	fd 01       	movw	r30, r26
    1084:	82 93       	st	-Z, r24
	TempData = TempData>>4;
}
    1086:	08 95       	ret

00001088 <Display10>:
void Display10(unsigned int TempData)
{
    1088:	9c 01       	movw	r18, r24
    if((TempData & 0x8000) != 0){
    108a:	97 ff       	sbrs	r25, 7
    108c:	30 c0       	rjmp	.+96     	; 0x10ee <Display10+0x66>
        LEDBUFFER[0] = LED_FU;
    108e:	8f eb       	ldi	r24, 0xBF	; 191
    1090:	80 93 70 00 	sts	0x0070, r24
        TempData = 0xFFFF - TempData;
    1094:	20 95       	com	r18
    1096:	30 95       	com	r19
	LEDBUFFER[3] = LEDMA[(unsigned char)(TempData % 10)];
    1098:	c9 01       	movw	r24, r18
    109a:	6a e0       	ldi	r22, 0x0A	; 10
    109c:	70 e0       	ldi	r23, 0x00	; 0
    109e:	e4 d1       	rcall	.+968    	; 0x1468 <__udivmodhi4>
    10a0:	e8 2f       	mov	r30, r24
    10a2:	f0 e0       	ldi	r31, 0x00	; 0
    10a4:	e0 5a       	subi	r30, 0xA0	; 160
    10a6:	ff 4f       	sbci	r31, 0xFF	; 255
    10a8:	80 81       	ld	r24, Z
    10aa:	80 93 73 00 	sts	0x0073, r24
	TempData = TempData/10;
    10ae:	c9 01       	movw	r24, r18
    10b0:	6a e0       	ldi	r22, 0x0A	; 10
    10b2:	70 e0       	ldi	r23, 0x00	; 0
    10b4:	d9 d1       	rcall	.+946    	; 0x1468 <__udivmodhi4>
    10b6:	9b 01       	movw	r18, r22
	LEDBUFFER[2] = LEDMA[(unsigned char)(TempData % 10)];
    10b8:	cb 01       	movw	r24, r22
    10ba:	6a e0       	ldi	r22, 0x0A	; 10
    10bc:	70 e0       	ldi	r23, 0x00	; 0
    10be:	d4 d1       	rcall	.+936    	; 0x1468 <__udivmodhi4>
    10c0:	e8 2f       	mov	r30, r24
    10c2:	f0 e0       	ldi	r31, 0x00	; 0
    10c4:	e0 5a       	subi	r30, 0xA0	; 160
    10c6:	ff 4f       	sbci	r31, 0xFF	; 255
    10c8:	80 81       	ld	r24, Z
    10ca:	80 93 72 00 	sts	0x0072, r24
	TempData = TempData/10;
	LEDBUFFER[1] = LEDMA[(unsigned char)(TempData % 10)];
    10ce:	c9 01       	movw	r24, r18
    10d0:	6a e0       	ldi	r22, 0x0A	; 10
    10d2:	70 e0       	ldi	r23, 0x00	; 0
    10d4:	c9 d1       	rcall	.+914    	; 0x1468 <__udivmodhi4>
    10d6:	cb 01       	movw	r24, r22
    10d8:	6a e0       	ldi	r22, 0x0A	; 10
    10da:	70 e0       	ldi	r23, 0x00	; 0
    10dc:	c5 d1       	rcall	.+906    	; 0x1468 <__udivmodhi4>
    10de:	e8 2f       	mov	r30, r24
    10e0:	f0 e0       	ldi	r31, 0x00	; 0
    10e2:	e0 5a       	subi	r30, 0xA0	; 160
    10e4:	ff 4f       	sbci	r31, 0xFF	; 255
    10e6:	80 81       	ld	r24, Z
    10e8:	80 93 71 00 	sts	0x0071, r24
    10ec:	39 c0       	rjmp	.+114    	; 0x1160 <Display10+0xd8>
	TempData = TempData/10;
    }else{
    	LEDBUFFER[3] = LEDMA[(unsigned char)(TempData % 10)];
    10ee:	6a e0       	ldi	r22, 0x0A	; 10
    10f0:	70 e0       	ldi	r23, 0x00	; 0
    10f2:	ba d1       	rcall	.+884    	; 0x1468 <__udivmodhi4>
    10f4:	e8 2f       	mov	r30, r24
    10f6:	f0 e0       	ldi	r31, 0x00	; 0
    10f8:	e0 5a       	subi	r30, 0xA0	; 160
    10fa:	ff 4f       	sbci	r31, 0xFF	; 255
    10fc:	80 81       	ld	r24, Z
    10fe:	80 93 73 00 	sts	0x0073, r24
	TempData = TempData/10;
    1102:	c9 01       	movw	r24, r18
    1104:	6a e0       	ldi	r22, 0x0A	; 10
    1106:	70 e0       	ldi	r23, 0x00	; 0
    1108:	af d1       	rcall	.+862    	; 0x1468 <__udivmodhi4>
    110a:	9b 01       	movw	r18, r22
	LEDBUFFER[2] = LEDMA[(unsigned char)(TempData % 10)];
    110c:	cb 01       	movw	r24, r22
    110e:	6a e0       	ldi	r22, 0x0A	; 10
    1110:	70 e0       	ldi	r23, 0x00	; 0
    1112:	aa d1       	rcall	.+852    	; 0x1468 <__udivmodhi4>
    1114:	e8 2f       	mov	r30, r24
    1116:	f0 e0       	ldi	r31, 0x00	; 0
    1118:	e0 5a       	subi	r30, 0xA0	; 160
    111a:	ff 4f       	sbci	r31, 0xFF	; 255
    111c:	80 81       	ld	r24, Z
    111e:	80 93 72 00 	sts	0x0072, r24
	TempData = TempData/10;
    1122:	c9 01       	movw	r24, r18
    1124:	6a e0       	ldi	r22, 0x0A	; 10
    1126:	70 e0       	ldi	r23, 0x00	; 0
    1128:	9f d1       	rcall	.+830    	; 0x1468 <__udivmodhi4>
    112a:	9b 01       	movw	r18, r22
	LEDBUFFER[1] = LEDMA[(unsigned char)(TempData % 10)];
    112c:	cb 01       	movw	r24, r22
    112e:	6a e0       	ldi	r22, 0x0A	; 10
    1130:	70 e0       	ldi	r23, 0x00	; 0
    1132:	9a d1       	rcall	.+820    	; 0x1468 <__udivmodhi4>
    1134:	e8 2f       	mov	r30, r24
    1136:	f0 e0       	ldi	r31, 0x00	; 0
    1138:	e0 5a       	subi	r30, 0xA0	; 160
    113a:	ff 4f       	sbci	r31, 0xFF	; 255
    113c:	80 81       	ld	r24, Z
    113e:	80 93 71 00 	sts	0x0071, r24
	TempData = TempData/10;
	LEDBUFFER[0] = LEDMA[(unsigned char)(TempData % 10)];
    1142:	c9 01       	movw	r24, r18
    1144:	6a e0       	ldi	r22, 0x0A	; 10
    1146:	70 e0       	ldi	r23, 0x00	; 0
    1148:	8f d1       	rcall	.+798    	; 0x1468 <__udivmodhi4>
    114a:	cb 01       	movw	r24, r22
    114c:	6a e0       	ldi	r22, 0x0A	; 10
    114e:	70 e0       	ldi	r23, 0x00	; 0
    1150:	8b d1       	rcall	.+790    	; 0x1468 <__udivmodhi4>
    1152:	e8 2f       	mov	r30, r24
    1154:	f0 e0       	ldi	r31, 0x00	; 0
    1156:	e0 5a       	subi	r30, 0xA0	; 160
    1158:	ff 4f       	sbci	r31, 0xFF	; 255
    115a:	80 81       	ld	r24, Z
    115c:	80 93 70 00 	sts	0x0070, r24
	TempData = TempData/10;	
    }


	if((XiaoShuDian < 5) && XiaoShuDian){
    1160:	80 91 be 00 	lds	r24, 0x00BE
    1164:	85 30       	cpi	r24, 0x05	; 5
    1166:	78 f4       	brcc	.+30     	; 0x1186 <Display10+0xfe>
    1168:	80 91 be 00 	lds	r24, 0x00BE
    116c:	88 23       	and	r24, r24
    116e:	59 f0       	breq	.+22     	; 0x1186 <Display10+0xfe>
#ifdef LEDGONGYANG
		LEDBUFFER[4 - XiaoShuDian] &= 0x7F;
    1170:	80 91 be 00 	lds	r24, 0x00BE
    1174:	e4 e0       	ldi	r30, 0x04	; 4
    1176:	f0 e0       	ldi	r31, 0x00	; 0
    1178:	e8 1b       	sub	r30, r24
    117a:	f1 09       	sbc	r31, r1
    117c:	e0 59       	subi	r30, 0x90	; 144
    117e:	ff 4f       	sbci	r31, 0xFF	; 255
    1180:	80 81       	ld	r24, Z
    1182:	8f 77       	andi	r24, 0x7F	; 127
    1184:	80 83       	st	Z, r24
    1186:	08 95       	ret

00001188 <DisplayFloat>:
	}
}
void DisplayFloat(int FZData,int FMData)
{
	
}
    1188:	08 95       	ret

0000118a <CRC16>:
	0xF001, 0x3C00, 0x2800, 0xE401,
	0xA001, 0x6C00, 0x7800, 0xB401,
	0x5000, 0x9C01, 0x8801, 0x4400, 
};
unsigned short CRC16(unsigned char *puchMsg,unsigned short usDataLen )
{
    118a:	cf 93       	push	r28
    118c:	df 93       	push	r29
    118e:	ec 01       	movw	r28, r24
    1190:	2f ef       	ldi	r18, 0xFF	; 255
    1192:	3f ef       	ldi	r19, 0xFF	; 255
    1194:	40 e0       	ldi	r20, 0x00	; 0
    1196:	50 e0       	ldi	r21, 0x00	; 0
    1198:	2a c0       	rjmp	.+84     	; 0x11ee <CRC16+0x64>
	unsigned short i;
	unsigned char chChar;

	for (i = 0; i < usDataLen; i++)
	{
		chChar = *puchMsg++;
    119a:	e9 91       	ld	r30, Y+
		wCRC = wCRCTalbeAbs[(chChar ^ wCRC) & 15] ^ (wCRC >> 4);
    119c:	ae 2f       	mov	r26, r30
    119e:	b0 e0       	ldi	r27, 0x00	; 0
    11a0:	a2 27       	eor	r26, r18
    11a2:	b3 27       	eor	r27, r19
    11a4:	af 70       	andi	r26, 0x0F	; 15
    11a6:	b0 70       	andi	r27, 0x00	; 0
    11a8:	aa 0f       	add	r26, r26
    11aa:	bb 1f       	adc	r27, r27
    11ac:	ac 58       	subi	r26, 0x8C	; 140
    11ae:	bf 4f       	sbci	r27, 0xFF	; 255
    11b0:	8d 91       	ld	r24, X+
    11b2:	9c 91       	ld	r25, X
    11b4:	b4 e0       	ldi	r27, 0x04	; 4
    11b6:	36 95       	lsr	r19
    11b8:	27 95       	ror	r18
    11ba:	ba 95       	dec	r27
    11bc:	e1 f7       	brne	.-8      	; 0x11b6 <CRC16+0x2c>
    11be:	82 27       	eor	r24, r18
    11c0:	93 27       	eor	r25, r19
		wCRC = wCRCTalbeAbs[((chChar >> 4) ^ wCRC) & 15] ^ (wCRC >> 4);
    11c2:	e2 95       	swap	r30
    11c4:	ef 70       	andi	r30, 0x0F	; 15
    11c6:	f0 e0       	ldi	r31, 0x00	; 0
    11c8:	e8 27       	eor	r30, r24
    11ca:	f9 27       	eor	r31, r25
    11cc:	ef 70       	andi	r30, 0x0F	; 15
    11ce:	f0 70       	andi	r31, 0x00	; 0
    11d0:	ee 0f       	add	r30, r30
    11d2:	ff 1f       	adc	r31, r31
    11d4:	ec 58       	subi	r30, 0x8C	; 140
    11d6:	ff 4f       	sbci	r31, 0xFF	; 255
    11d8:	20 81       	ld	r18, Z
    11da:	31 81       	ldd	r19, Z+1	; 0x01
    11dc:	e4 e0       	ldi	r30, 0x04	; 4
    11de:	96 95       	lsr	r25
    11e0:	87 95       	ror	r24
    11e2:	ea 95       	dec	r30
    11e4:	e1 f7       	brne	.-8      	; 0x11de <CRC16+0x54>
    11e6:	28 27       	eor	r18, r24
    11e8:	39 27       	eor	r19, r25
{
	unsigned short wCRC = 0xFFFF;
	unsigned short i;
	unsigned char chChar;

	for (i = 0; i < usDataLen; i++)
    11ea:	4f 5f       	subi	r20, 0xFF	; 255
    11ec:	5f 4f       	sbci	r21, 0xFF	; 255
    11ee:	46 17       	cp	r20, r22
    11f0:	57 07       	cpc	r21, r23
    11f2:	98 f2       	brcs	.-90     	; 0x119a <CRC16+0x10>
		wCRC = wCRCTalbeAbs[(chChar ^ wCRC) & 15] ^ (wCRC >> 4);
		wCRC = wCRCTalbeAbs[((chChar >> 4) ^ wCRC) & 15] ^ (wCRC >> 4);
	}

	return wCRC;
}
    11f4:	c9 01       	movw	r24, r18
    11f6:	df 91       	pop	r29
    11f8:	cf 91       	pop	r28
    11fa:	08 95       	ret

000011fc <IIC_Start>:
#endif

//IIC
void IIC_Start(void)
{
    SDA1;
    11fc:	00 00       	nop
    11fe:	ac 9a       	sbi	0x15, 4	; 21
    1200:	00 00       	nop
    1202:	00 00       	nop
    SCL1;
    1204:	00 00       	nop
    1206:	ad 9a       	sbi	0x15, 5	; 21
    1208:	00 00       	nop
    SDA0;
    120a:	00 00       	nop
    120c:	ac 98       	cbi	0x15, 4	; 21
    120e:	00 00       	nop
    1210:	00 00       	nop
    SCL0;
    1212:	00 00       	nop
    1214:	ad 98       	cbi	0x15, 5	; 21
    1216:	00 00       	nop
}
    1218:	08 95       	ret

0000121a <IIC_Stop>:
//IIC
void IIC_Stop(void)
{
    SCL0;
    121a:	00 00       	nop
    121c:	ad 98       	cbi	0x15, 5	; 21
    121e:	00 00       	nop
    SDA0;
    1220:	00 00       	nop
    1222:	ac 98       	cbi	0x15, 4	; 21
    1224:	00 00       	nop
    1226:	00 00       	nop
    SCL1;
    1228:	00 00       	nop
    122a:	ad 9a       	sbi	0x15, 5	; 21
    122c:	00 00       	nop
    SDA1;
    122e:	00 00       	nop
    1230:	ac 9a       	sbi	0x15, 4	; 21
    1232:	00 00       	nop
    1234:	00 00       	nop
}
    1236:	08 95       	ret

00001238 <IIC_Send_Byte>:
void IIC_Send_Byte(uchar Data)
{
    1238:	20 e0       	ldi	r18, 0x00	; 0
    123a:	30 e0       	ldi	r19, 0x00	; 0
    unsigned char cnt;
    for(cnt=0;cnt<8;cnt++){
        if((Data<<cnt)&0x80){
    123c:	48 2f       	mov	r20, r24
    123e:	50 e0       	ldi	r21, 0x00	; 0
    1240:	ca 01       	movw	r24, r20
    1242:	02 2e       	mov	r0, r18
    1244:	02 c0       	rjmp	.+4      	; 0x124a <IIC_Send_Byte+0x12>
    1246:	88 0f       	add	r24, r24
    1248:	99 1f       	adc	r25, r25
    124a:	0a 94       	dec	r0
    124c:	e2 f7       	brpl	.-8      	; 0x1246 <IIC_Send_Byte+0xe>
    124e:	87 ff       	sbrs	r24, 7
    1250:	05 c0       	rjmp	.+10     	; 0x125c <IIC_Send_Byte+0x24>
	    SDA1;
    1252:	00 00       	nop
    1254:	ac 9a       	sbi	0x15, 4	; 21
    1256:	00 00       	nop
    1258:	00 00       	nop
    125a:	04 c0       	rjmp	.+8      	; 0x1264 <IIC_Send_Byte+0x2c>
	}else{
	    SDA0;
    125c:	00 00       	nop
    125e:	ac 98       	cbi	0x15, 4	; 21
    1260:	00 00       	nop
    1262:	00 00       	nop
	}
        SCL1;
    1264:	00 00       	nop
    1266:	ad 9a       	sbi	0x15, 5	; 21
    1268:	00 00       	nop
	asm("NOP");
    126a:	00 00       	nop
	asm("NOP");
    126c:	00 00       	nop
	SCL0;
    126e:	00 00       	nop
    1270:	ad 98       	cbi	0x15, 5	; 21
    1272:	00 00       	nop
    1274:	2f 5f       	subi	r18, 0xFF	; 255
    1276:	3f 4f       	sbci	r19, 0xFF	; 255
    SDA1;
}
void IIC_Send_Byte(uchar Data)
{
    unsigned char cnt;
    for(cnt=0;cnt<8;cnt++){
    1278:	28 30       	cpi	r18, 0x08	; 8
    127a:	31 05       	cpc	r19, r1
    127c:	09 f7       	brne	.-62     	; 0x1240 <IIC_Send_Byte+0x8>
        SCL1;
	asm("NOP");
	asm("NOP");
	SCL0;
    }
    SCL0;
    127e:	00 00       	nop
    1280:	ad 98       	cbi	0x15, 5	; 21
    1282:	00 00       	nop
    SDA0;
    1284:	00 00       	nop
    1286:	ac 98       	cbi	0x15, 4	; 21
    1288:	00 00       	nop
    128a:	00 00       	nop
    SCL1;
    128c:	00 00       	nop
    128e:	ad 9a       	sbi	0x15, 5	; 21
    1290:	00 00       	nop
    asm("NOP");
    1292:	00 00       	nop
    asm("NOP");
    1294:	00 00       	nop
    SCL0;
    1296:	00 00       	nop
    1298:	ad 98       	cbi	0x15, 5	; 21
    129a:	00 00       	nop
}
    129c:	08 95       	ret

0000129e <IIC_Receive_Byte>:
void IIC_Receive_Byte(uchar * Data)
{
    129e:	fc 01       	movw	r30, r24
    unsigned char cnt;
    *Data = 0;
    SCL0;
    12a0:	00 00       	nop
    12a2:	ad 98       	cbi	0x15, 5	; 21
    12a4:	00 00       	nop
    SDA_SET_IN;
    12a6:	a4 98       	cbi	0x14, 4	; 20
    SDA0;
    12a8:	00 00       	nop
    12aa:	ac 98       	cbi	0x15, 4	; 21
    12ac:	00 00       	nop
    12ae:	00 00       	nop
    12b0:	90 e0       	ldi	r25, 0x00	; 0
    12b2:	80 e0       	ldi	r24, 0x00	; 0
    for(cnt=0;cnt<8;cnt++){
    	SCL0;
    12b4:	00 00       	nop
    12b6:	ad 98       	cbi	0x15, 5	; 21
    12b8:	00 00       	nop
        SCL1;
    12ba:	00 00       	nop
    12bc:	ad 9a       	sbi	0x15, 5	; 21
    12be:	00 00       	nop
        (*Data) <<= 1;
    12c0:	88 0f       	add	r24, r24
	if(READ_SDA){
    12c2:	9c 99       	sbic	0x13, 4	; 19
	    (*Data) |= 0x01;
    12c4:	81 60       	ori	r24, 0x01	; 1
    unsigned char cnt;
    *Data = 0;
    SCL0;
    SDA_SET_IN;
    SDA0;
    for(cnt=0;cnt<8;cnt++){
    12c6:	9f 5f       	subi	r25, 0xFF	; 255
    12c8:	98 30       	cpi	r25, 0x08	; 8
    12ca:	a1 f7       	brne	.-24     	; 0x12b4 <IIC_Receive_Byte+0x16>
    12cc:	80 83       	st	Z, r24
	if(READ_SDA){
	    (*Data) |= 0x01;
	}

    }
    SCL0;
    12ce:	00 00       	nop
    12d0:	ad 98       	cbi	0x15, 5	; 21
    12d2:	00 00       	nop
    SDA0;
    12d4:	00 00       	nop
    12d6:	ac 98       	cbi	0x15, 4	; 21
    12d8:	00 00       	nop
    12da:	00 00       	nop
    SDA_SET_OUT;
    12dc:	a4 9a       	sbi	0x14, 4	; 20
    SCL1;
    12de:	00 00       	nop
    12e0:	ad 9a       	sbi	0x15, 5	; 21
    12e2:	00 00       	nop
    asm("NOP");
    12e4:	00 00       	nop
    asm("NOP");
    12e6:	00 00       	nop
    SCL0;
    12e8:	00 00       	nop
    12ea:	ad 98       	cbi	0x15, 5	; 21
    12ec:	00 00       	nop
}
    12ee:	08 95       	ret

000012f0 <SetUpADS1110>:
void SetUpADS1110(unsigned char x)
{
    12f0:	1f 93       	push	r17
    12f2:	18 2f       	mov	r17, r24
    IIC_Start();
    12f4:	83 df       	rcall	.-250    	; 0x11fc <IIC_Start>
    IIC_Send_Byte(ADS1110_ADDR & 0xFE);
    12f6:	80 e9       	ldi	r24, 0x90	; 144
    12f8:	9f df       	rcall	.-194    	; 0x1238 <IIC_Send_Byte>
    IIC_Send_Byte(x);
    12fa:	81 2f       	mov	r24, r17
    12fc:	9d df       	rcall	.-198    	; 0x1238 <IIC_Send_Byte>
    IIC_Stop();
    12fe:	8d df       	rcall	.-230    	; 0x121a <IIC_Stop>
}
    1300:	1f 91       	pop	r17
    1302:	08 95       	ret

00001304 <Init_ADS1110>:
    return data;
}
#else
void Init_ADS1110(void)
{
    SDA_SET_OUT;
    1304:	a4 9a       	sbi	0x14, 4	; 20
    SCL_SET_OUT;
    1306:	a5 9a       	sbi	0x14, 5	; 20
    SetUpADS1110(0x1C);
    1308:	8c e1       	ldi	r24, 0x1C	; 28
    130a:	f2 df       	rcall	.-28     	; 0x12f0 <SetUpADS1110>
}
    130c:	08 95       	ret

0000130e <ReadADS1110>:
unsigned int ReadADS1110(void)
{
    130e:	af 92       	push	r10
    1310:	bf 92       	push	r11
    1312:	cf 92       	push	r12
    1314:	df 92       	push	r13
    1316:	ef 92       	push	r14
    1318:	ff 92       	push	r15
    131a:	0f 93       	push	r16
    131c:	1f 93       	push	r17
    131e:	df 93       	push	r29
    1320:	cf 93       	push	r28
    1322:	00 d0       	rcall	.+0      	; 0x1324 <ReadADS1110+0x16>
    1324:	0f 92       	push	r0
    1326:	cd b7       	in	r28, 0x3d	; 61
    1328:	de b7       	in	r29, 0x3e	; 62
    unsigned int data = 0;
    unsigned char tmpH = 0;
    132a:	19 82       	std	Y+1, r1	; 0x01
    unsigned char tmpL = 0;
    132c:	1a 82       	std	Y+2, r1	; 0x02
    unsigned char setup = 0;
    132e:	1b 82       	std	Y+3, r1	; 0x03
    int i;
    SetUpADS1110(0x1C | 0x80);
    1330:	8c e9       	ldi	r24, 0x9C	; 156
    1332:	de df       	rcall	.-68     	; 0x12f0 <SetUpADS1110>
    1334:	04 ef       	ldi	r16, 0xF4	; 244
    1336:	11 e0       	ldi	r17, 0x01	; 1
    for(i = 0;i < 500;i++);
    do{
    i--;
    IIC_Start();
    IIC_Send_Byte(ADS1110_ADDR | 0x01);
    IIC_Receive_Byte(&tmpH);
    1338:	5e 01       	movw	r10, r28
    133a:	08 94       	sec
    133c:	a1 1c       	adc	r10, r1
    133e:	b1 1c       	adc	r11, r1
    IIC_Receive_Byte(&tmpL);
    1340:	92 e0       	ldi	r25, 0x02	; 2
    1342:	c9 2e       	mov	r12, r25
    1344:	d1 2c       	mov	r13, r1
    1346:	cc 0e       	add	r12, r28
    1348:	dd 1e       	adc	r13, r29
    IIC_Receive_Byte(&setup);
    134a:	83 e0       	ldi	r24, 0x03	; 3
    134c:	e8 2e       	mov	r14, r24
    134e:	f1 2c       	mov	r15, r1
    1350:	ec 0e       	add	r14, r28
    1352:	fd 1e       	adc	r15, r29
    unsigned char setup = 0;
    int i;
    SetUpADS1110(0x1C | 0x80);
    for(i = 0;i < 500;i++);
    do{
    i--;
    1354:	01 50       	subi	r16, 0x01	; 1
    1356:	10 40       	sbci	r17, 0x00	; 0
    IIC_Start();
    1358:	51 df       	rcall	.-350    	; 0x11fc <IIC_Start>
    IIC_Send_Byte(ADS1110_ADDR | 0x01);
    135a:	81 e9       	ldi	r24, 0x91	; 145
    135c:	6d df       	rcall	.-294    	; 0x1238 <IIC_Send_Byte>
    IIC_Receive_Byte(&tmpH);
    135e:	c5 01       	movw	r24, r10
    1360:	9e df       	rcall	.-196    	; 0x129e <IIC_Receive_Byte>
    IIC_Receive_Byte(&tmpL);
    1362:	c6 01       	movw	r24, r12
    1364:	9c df       	rcall	.-200    	; 0x129e <IIC_Receive_Byte>
    IIC_Receive_Byte(&setup);
    1366:	c7 01       	movw	r24, r14
    1368:	9a df       	rcall	.-204    	; 0x129e <IIC_Receive_Byte>
    IIC_Stop();
    136a:	57 df       	rcall	.-338    	; 0x121a <IIC_Stop>
    }while(((setup | 0x80) == 0x80) && (i > 0));
    136c:	8b 81       	ldd	r24, Y+3	; 0x03
    136e:	80 68       	ori	r24, 0x80	; 128
    1370:	80 38       	cpi	r24, 0x80	; 128
    1372:	19 f4       	brne	.+6      	; 0x137a <ReadADS1110+0x6c>
    1374:	01 15       	cp	r16, r1
    1376:	11 05       	cpc	r17, r1
    1378:	69 f7       	brne	.-38     	; 0x1354 <ReadADS1110+0x46>
    if(i<0)
    137a:	17 ff       	sbrs	r17, 7
    137c:	03 c0       	rjmp	.+6      	; 0x1384 <ReadADS1110+0x76>
    137e:	20 e0       	ldi	r18, 0x00	; 0
    1380:	30 e0       	ldi	r19, 0x00	; 0
    1382:	07 c0       	rjmp	.+14     	; 0x1392 <ReadADS1110+0x84>
        return 0;
    data = (unsigned int)tmpH << 8;
    1384:	99 81       	ldd	r25, Y+1	; 0x01
    1386:	80 e0       	ldi	r24, 0x00	; 0
    data += tmpL;
    1388:	2a 81       	ldd	r18, Y+2	; 0x02
    138a:	ac 01       	movw	r20, r24
    138c:	42 0f       	add	r20, r18
    138e:	51 1d       	adc	r21, r1
    1390:	9a 01       	movw	r18, r20
    return data;
}
    1392:	c9 01       	movw	r24, r18
    1394:	0f 90       	pop	r0
    1396:	0f 90       	pop	r0
    1398:	0f 90       	pop	r0
    139a:	cf 91       	pop	r28
    139c:	df 91       	pop	r29
    139e:	1f 91       	pop	r17
    13a0:	0f 91       	pop	r16
    13a2:	ff 90       	pop	r15
    13a4:	ef 90       	pop	r14
    13a6:	df 90       	pop	r13
    13a8:	cf 90       	pop	r12
    13aa:	bf 90       	pop	r11
    13ac:	af 90       	pop	r10
    13ae:	08 95       	ret

000013b0 <__floatunsisf>:
    13b0:	e8 94       	clt
    13b2:	09 c0       	rjmp	.+18     	; 0x13c6 <__floatsisf+0x12>

000013b4 <__floatsisf>:
    13b4:	97 fb       	bst	r25, 7
    13b6:	3e f4       	brtc	.+14     	; 0x13c6 <__floatsisf+0x12>
    13b8:	90 95       	com	r25
    13ba:	80 95       	com	r24
    13bc:	70 95       	com	r23
    13be:	61 95       	neg	r22
    13c0:	7f 4f       	sbci	r23, 0xFF	; 255
    13c2:	8f 4f       	sbci	r24, 0xFF	; 255
    13c4:	9f 4f       	sbci	r25, 0xFF	; 255
    13c6:	99 23       	and	r25, r25
    13c8:	a9 f0       	breq	.+42     	; 0x13f4 <__floatsisf+0x40>
    13ca:	f9 2f       	mov	r31, r25
    13cc:	96 e9       	ldi	r25, 0x96	; 150
    13ce:	bb 27       	eor	r27, r27
    13d0:	93 95       	inc	r25
    13d2:	f6 95       	lsr	r31
    13d4:	87 95       	ror	r24
    13d6:	77 95       	ror	r23
    13d8:	67 95       	ror	r22
    13da:	b7 95       	ror	r27
    13dc:	f1 11       	cpse	r31, r1
    13de:	f8 cf       	rjmp	.-16     	; 0x13d0 <__floatsisf+0x1c>
    13e0:	fa f4       	brpl	.+62     	; 0x1420 <__floatsisf+0x6c>
    13e2:	bb 0f       	add	r27, r27
    13e4:	11 f4       	brne	.+4      	; 0x13ea <__floatsisf+0x36>
    13e6:	60 ff       	sbrs	r22, 0
    13e8:	1b c0       	rjmp	.+54     	; 0x1420 <__floatsisf+0x6c>
    13ea:	6f 5f       	subi	r22, 0xFF	; 255
    13ec:	7f 4f       	sbci	r23, 0xFF	; 255
    13ee:	8f 4f       	sbci	r24, 0xFF	; 255
    13f0:	9f 4f       	sbci	r25, 0xFF	; 255
    13f2:	16 c0       	rjmp	.+44     	; 0x1420 <__floatsisf+0x6c>
    13f4:	88 23       	and	r24, r24
    13f6:	11 f0       	breq	.+4      	; 0x13fc <__floatsisf+0x48>
    13f8:	96 e9       	ldi	r25, 0x96	; 150
    13fa:	11 c0       	rjmp	.+34     	; 0x141e <__floatsisf+0x6a>
    13fc:	77 23       	and	r23, r23
    13fe:	21 f0       	breq	.+8      	; 0x1408 <__floatsisf+0x54>
    1400:	9e e8       	ldi	r25, 0x8E	; 142
    1402:	87 2f       	mov	r24, r23
    1404:	76 2f       	mov	r23, r22
    1406:	05 c0       	rjmp	.+10     	; 0x1412 <__floatsisf+0x5e>
    1408:	66 23       	and	r22, r22
    140a:	71 f0       	breq	.+28     	; 0x1428 <__floatsisf+0x74>
    140c:	96 e8       	ldi	r25, 0x86	; 134
    140e:	86 2f       	mov	r24, r22
    1410:	70 e0       	ldi	r23, 0x00	; 0
    1412:	60 e0       	ldi	r22, 0x00	; 0
    1414:	2a f0       	brmi	.+10     	; 0x1420 <__floatsisf+0x6c>
    1416:	9a 95       	dec	r25
    1418:	66 0f       	add	r22, r22
    141a:	77 1f       	adc	r23, r23
    141c:	88 1f       	adc	r24, r24
    141e:	da f7       	brpl	.-10     	; 0x1416 <__floatsisf+0x62>
    1420:	88 0f       	add	r24, r24
    1422:	96 95       	lsr	r25
    1424:	87 95       	ror	r24
    1426:	97 f9       	bld	r25, 7
    1428:	08 95       	ret

0000142a <__mulsi3>:
    142a:	62 9f       	mul	r22, r18
    142c:	d0 01       	movw	r26, r0
    142e:	73 9f       	mul	r23, r19
    1430:	f0 01       	movw	r30, r0
    1432:	82 9f       	mul	r24, r18
    1434:	e0 0d       	add	r30, r0
    1436:	f1 1d       	adc	r31, r1
    1438:	64 9f       	mul	r22, r20
    143a:	e0 0d       	add	r30, r0
    143c:	f1 1d       	adc	r31, r1
    143e:	92 9f       	mul	r25, r18
    1440:	f0 0d       	add	r31, r0
    1442:	83 9f       	mul	r24, r19
    1444:	f0 0d       	add	r31, r0
    1446:	74 9f       	mul	r23, r20
    1448:	f0 0d       	add	r31, r0
    144a:	65 9f       	mul	r22, r21
    144c:	f0 0d       	add	r31, r0
    144e:	99 27       	eor	r25, r25
    1450:	72 9f       	mul	r23, r18
    1452:	b0 0d       	add	r27, r0
    1454:	e1 1d       	adc	r30, r1
    1456:	f9 1f       	adc	r31, r25
    1458:	63 9f       	mul	r22, r19
    145a:	b0 0d       	add	r27, r0
    145c:	e1 1d       	adc	r30, r1
    145e:	f9 1f       	adc	r31, r25
    1460:	bd 01       	movw	r22, r26
    1462:	cf 01       	movw	r24, r30
    1464:	11 24       	eor	r1, r1
    1466:	08 95       	ret

00001468 <__udivmodhi4>:
    1468:	aa 1b       	sub	r26, r26
    146a:	bb 1b       	sub	r27, r27
    146c:	51 e1       	ldi	r21, 0x11	; 17
    146e:	07 c0       	rjmp	.+14     	; 0x147e <__udivmodhi4_ep>

00001470 <__udivmodhi4_loop>:
    1470:	aa 1f       	adc	r26, r26
    1472:	bb 1f       	adc	r27, r27
    1474:	a6 17       	cp	r26, r22
    1476:	b7 07       	cpc	r27, r23
    1478:	10 f0       	brcs	.+4      	; 0x147e <__udivmodhi4_ep>
    147a:	a6 1b       	sub	r26, r22
    147c:	b7 0b       	sbc	r27, r23

0000147e <__udivmodhi4_ep>:
    147e:	88 1f       	adc	r24, r24
    1480:	99 1f       	adc	r25, r25
    1482:	5a 95       	dec	r21
    1484:	a9 f7       	brne	.-22     	; 0x1470 <__udivmodhi4_loop>
    1486:	80 95       	com	r24
    1488:	90 95       	com	r25
    148a:	bc 01       	movw	r22, r24
    148c:	cd 01       	movw	r24, r26
    148e:	08 95       	ret

00001490 <__udivmodsi4>:
    1490:	a1 e2       	ldi	r26, 0x21	; 33
    1492:	1a 2e       	mov	r1, r26
    1494:	aa 1b       	sub	r26, r26
    1496:	bb 1b       	sub	r27, r27
    1498:	fd 01       	movw	r30, r26
    149a:	0d c0       	rjmp	.+26     	; 0x14b6 <__udivmodsi4_ep>

0000149c <__udivmodsi4_loop>:
    149c:	aa 1f       	adc	r26, r26
    149e:	bb 1f       	adc	r27, r27
    14a0:	ee 1f       	adc	r30, r30
    14a2:	ff 1f       	adc	r31, r31
    14a4:	a2 17       	cp	r26, r18
    14a6:	b3 07       	cpc	r27, r19
    14a8:	e4 07       	cpc	r30, r20
    14aa:	f5 07       	cpc	r31, r21
    14ac:	20 f0       	brcs	.+8      	; 0x14b6 <__udivmodsi4_ep>
    14ae:	a2 1b       	sub	r26, r18
    14b0:	b3 0b       	sbc	r27, r19
    14b2:	e4 0b       	sbc	r30, r20
    14b4:	f5 0b       	sbc	r31, r21

000014b6 <__udivmodsi4_ep>:
    14b6:	66 1f       	adc	r22, r22
    14b8:	77 1f       	adc	r23, r23
    14ba:	88 1f       	adc	r24, r24
    14bc:	99 1f       	adc	r25, r25
    14be:	1a 94       	dec	r1
    14c0:	69 f7       	brne	.-38     	; 0x149c <__udivmodsi4_loop>
    14c2:	60 95       	com	r22
    14c4:	70 95       	com	r23
    14c6:	80 95       	com	r24
    14c8:	90 95       	com	r25
    14ca:	9b 01       	movw	r18, r22
    14cc:	ac 01       	movw	r20, r24
    14ce:	bd 01       	movw	r22, r26
    14d0:	cf 01       	movw	r24, r30
    14d2:	08 95       	ret

000014d4 <__divmodsi4>:
    14d4:	97 fb       	bst	r25, 7
    14d6:	09 2e       	mov	r0, r25
    14d8:	05 26       	eor	r0, r21
    14da:	0e d0       	rcall	.+28     	; 0x14f8 <__divmodsi4_neg1>
    14dc:	57 fd       	sbrc	r21, 7
    14de:	04 d0       	rcall	.+8      	; 0x14e8 <__divmodsi4_neg2>
    14e0:	d7 df       	rcall	.-82     	; 0x1490 <__udivmodsi4>
    14e2:	0a d0       	rcall	.+20     	; 0x14f8 <__divmodsi4_neg1>
    14e4:	00 1c       	adc	r0, r0
    14e6:	38 f4       	brcc	.+14     	; 0x14f6 <__divmodsi4_exit>

000014e8 <__divmodsi4_neg2>:
    14e8:	50 95       	com	r21
    14ea:	40 95       	com	r20
    14ec:	30 95       	com	r19
    14ee:	21 95       	neg	r18
    14f0:	3f 4f       	sbci	r19, 0xFF	; 255
    14f2:	4f 4f       	sbci	r20, 0xFF	; 255
    14f4:	5f 4f       	sbci	r21, 0xFF	; 255

000014f6 <__divmodsi4_exit>:
    14f6:	08 95       	ret

000014f8 <__divmodsi4_neg1>:
    14f8:	f6 f7       	brtc	.-4      	; 0x14f6 <__divmodsi4_exit>
    14fa:	90 95       	com	r25
    14fc:	80 95       	com	r24
    14fe:	70 95       	com	r23
    1500:	61 95       	neg	r22
    1502:	7f 4f       	sbci	r23, 0xFF	; 255
    1504:	8f 4f       	sbci	r24, 0xFF	; 255
    1506:	9f 4f       	sbci	r25, 0xFF	; 255
    1508:	08 95       	ret

0000150a <__eerd_byte_m8>:
    150a:	e1 99       	sbic	0x1c, 1	; 28
    150c:	fe cf       	rjmp	.-4      	; 0x150a <__eerd_byte_m8>
    150e:	9f bb       	out	0x1f, r25	; 31
    1510:	8e bb       	out	0x1e, r24	; 30
    1512:	e0 9a       	sbi	0x1c, 0	; 28
    1514:	99 27       	eor	r25, r25
    1516:	8d b3       	in	r24, 0x1d	; 29
    1518:	08 95       	ret

0000151a <__eerd_word_m8>:
    151a:	a8 e1       	ldi	r26, 0x18	; 24
    151c:	b0 e0       	ldi	r27, 0x00	; 0
    151e:	42 e0       	ldi	r20, 0x02	; 2
    1520:	50 e0       	ldi	r21, 0x00	; 0
    1522:	12 c0       	rjmp	.+36     	; 0x1548 <__eerd_blraw_m8>

00001524 <__eewr_byte_m8>:
    1524:	26 2f       	mov	r18, r22

00001526 <__eewr_r18_m8>:
    1526:	e1 99       	sbic	0x1c, 1	; 28
    1528:	fe cf       	rjmp	.-4      	; 0x1526 <__eewr_r18_m8>
    152a:	9f bb       	out	0x1f, r25	; 31
    152c:	8e bb       	out	0x1e, r24	; 30
    152e:	2d bb       	out	0x1d, r18	; 29
    1530:	0f b6       	in	r0, 0x3f	; 63
    1532:	f8 94       	cli
    1534:	e2 9a       	sbi	0x1c, 2	; 28
    1536:	e1 9a       	sbi	0x1c, 1	; 28
    1538:	0f be       	out	0x3f, r0	; 63
    153a:	01 96       	adiw	r24, 0x01	; 1
    153c:	08 95       	ret

0000153e <__eewr_word_m8>:
    153e:	f2 df       	rcall	.-28     	; 0x1524 <__eewr_byte_m8>
    1540:	27 2f       	mov	r18, r23
    1542:	f1 cf       	rjmp	.-30     	; 0x1526 <__eewr_r18_m8>

00001544 <__eerd_block_m8>:
    1544:	dc 01       	movw	r26, r24
    1546:	cb 01       	movw	r24, r22

00001548 <__eerd_blraw_m8>:
    1548:	fc 01       	movw	r30, r24
    154a:	e1 99       	sbic	0x1c, 1	; 28
    154c:	fe cf       	rjmp	.-4      	; 0x154a <__eerd_blraw_m8+0x2>
    154e:	06 c0       	rjmp	.+12     	; 0x155c <__eerd_blraw_m8+0x14>
    1550:	ff bb       	out	0x1f, r31	; 31
    1552:	ee bb       	out	0x1e, r30	; 30
    1554:	e0 9a       	sbi	0x1c, 0	; 28
    1556:	31 96       	adiw	r30, 0x01	; 1
    1558:	0d b2       	in	r0, 0x1d	; 29
    155a:	0d 92       	st	X+, r0
    155c:	41 50       	subi	r20, 0x01	; 1
    155e:	50 40       	sbci	r21, 0x00	; 0
    1560:	b8 f7       	brcc	.-18     	; 0x1550 <__eerd_blraw_m8+0x8>
    1562:	08 95       	ret

00001564 <_exit>:
    1564:	f8 94       	cli

00001566 <__stop_program>:
    1566:	ff cf       	rjmp	.-2      	; 0x1566 <__stop_program>
